
NIOS_DEMO.elf:     file format elf32-littlenios2
NIOS_DEMO.elf
architecture: nios2:r1, flags 0x00000112:
EXEC_P, HAS_SYMS, D_PAGED
start address 0x000401c0

Program Header:
    LOAD off    0x00001000 vaddr 0x00040000 paddr 0x00040000 align 2**12
         filesz 0x00000020 memsz 0x00000020 flags r-x
    LOAD off    0x00001020 vaddr 0x00040020 paddr 0x00040020 align 2**12
         filesz 0x0001b82c memsz 0x0001b82c flags r-x
    LOAD off    0x0001c84c vaddr 0x0005b84c paddr 0x0005d580 align 2**12
         filesz 0x00001d34 memsz 0x00001d34 flags rw-
    LOAD off    0x0001f2b4 vaddr 0x0005f2b4 paddr 0x0005f2b4 align 2**12
         filesz 0x00000000 memsz 0x0000015c flags rw-

Sections:
Idx Name          Size      VMA       LMA       File off  Algn
  0 .entry        00000020  00040000  00040000  00001000  2**5
                  CONTENTS, ALLOC, LOAD, READONLY, CODE
  1 .exceptions   000001a0  00040020  00040020  00001020  2**2
                  CONTENTS, ALLOC, LOAD, READONLY, CODE
  2 .text         0001aa18  000401c0  000401c0  000011c0  2**2
                  CONTENTS, ALLOC, LOAD, READONLY, CODE
  3 .rodata       00000c74  0005abd8  0005abd8  0001bbd8  2**2
                  CONTENTS, ALLOC, LOAD, READONLY, DATA
  4 .rwdata       00001d34  0005b84c  0005d580  0001c84c  2**2
                  CONTENTS, ALLOC, LOAD, DATA, SMALL_DATA
  5 .bss          0000015c  0005f2b4  0005f2b4  0001f2b4  2**2
                  ALLOC, SMALL_DATA
  6 .onchip_memory2 00000000  0005f410  0005f410  0001e580  2**0
                  CONTENTS
  7 .comment      00000023  00000000  00000000  0001e580  2**0
                  CONTENTS, READONLY
  8 .debug_aranges 000013b8  00000000  00000000  0001e5a8  2**3
                  CONTENTS, READONLY, DEBUGGING
  9 .debug_info   000327b8  00000000  00000000  0001f960  2**0
                  CONTENTS, READONLY, DEBUGGING
 10 .debug_abbrev 0000c93e  00000000  00000000  00052118  2**0
                  CONTENTS, READONLY, DEBUGGING
 11 .debug_line   00010d73  00000000  00000000  0005ea56  2**0
                  CONTENTS, READONLY, DEBUGGING
 12 .debug_frame  00002dcc  00000000  00000000  0006f7cc  2**2
                  CONTENTS, READONLY, DEBUGGING
 13 .debug_str    00004575  00000000  00000000  00072598  2**0
                  CONTENTS, READONLY, DEBUGGING
 14 .debug_loc    0002555a  00000000  00000000  00076b0d  2**0
                  CONTENTS, READONLY, DEBUGGING
 15 .debug_alt_sim_info 00000060  00000000  00000000  0009c068  2**2
                  CONTENTS, READONLY, DEBUGGING
 16 .debug_ranges 00002158  00000000  00000000  0009c0c8  2**3
                  CONTENTS, READONLY, DEBUGGING
 17 .thread_model 00000003  00000000  00000000  000a1ea6  2**0
                  CONTENTS, READONLY
 18 .cpu          0000000a  00000000  00000000  000a1ea9  2**0
                  CONTENTS, READONLY
 19 .qsys         00000001  00000000  00000000  000a1eb3  2**0
                  CONTENTS, READONLY
 20 .simulation_enabled 00000001  00000000  00000000  000a1eb4  2**0
                  CONTENTS, READONLY
 21 .stderr_dev   00000009  00000000  00000000  000a1eb5  2**0
                  CONTENTS, READONLY
 22 .stdin_dev    00000009  00000000  00000000  000a1ebe  2**0
                  CONTENTS, READONLY
 23 .stdout_dev   00000009  00000000  00000000  000a1ec7  2**0
                  CONTENTS, READONLY
 24 .sopc_system_name 00000007  00000000  00000000  000a1ed0  2**0
                  CONTENTS, READONLY
 25 .quartus_project_dir 0000004d  00000000  00000000  000a1ed7  2**0
                  CONTENTS, READONLY
 26 .jdi          00003d78  00000000  00000000  000a1f24  2**0
                  CONTENTS, READONLY
 27 .sopcinfo     00080e89  00000000  00000000  000a5c9c  2**0
                  CONTENTS, READONLY
SYMBOL TABLE:
00040000 l    d  .entry	00000000 .entry
00040020 l    d  .exceptions	00000000 .exceptions
000401c0 l    d  .text	00000000 .text
0005abd8 l    d  .rodata	00000000 .rodata
0005b84c l    d  .rwdata	00000000 .rwdata
0005f2b4 l    d  .bss	00000000 .bss
0005f410 l    d  .onchip_memory2	00000000 .onchip_memory2
00000000 l    d  .comment	00000000 .comment
00000000 l    d  .debug_aranges	00000000 .debug_aranges
00000000 l    d  .debug_info	00000000 .debug_info
00000000 l    d  .debug_abbrev	00000000 .debug_abbrev
00000000 l    d  .debug_line	00000000 .debug_line
00000000 l    d  .debug_frame	00000000 .debug_frame
00000000 l    d  .debug_str	00000000 .debug_str
00000000 l    d  .debug_loc	00000000 .debug_loc
00000000 l    d  .debug_alt_sim_info	00000000 .debug_alt_sim_info
00000000 l    d  .debug_ranges	00000000 .debug_ranges
00000000 l    df *ABS*	00000000 ../NIOS_DEMO_bsp//obj/HAL/src/crt0.o
00040208 l       .text	00000000 alt_after_alt_main
00000000 l    df *ABS*	00000000 alt_exception_entry.o
00040094 l       .exceptions	00000000 alt_exception_unknown
00000000 l    df *ABS*	00000000 alt_irq_handler.c
00000000 l    df *ABS*	00000000 I2C.c
00000000 l    df *ABS*	00000000 clock.c
00000000 l    df *ABS*	00000000 main.c
00000000 l    df *ABS*	00000000 si57x_config.c
00000000 l    df *ABS*	00000000 libgcc2.c
00000000 l    df *ABS*	00000000 libgcc2.c
00000000 l    df *ABS*	00000000 mulsf3.c
00000000 l    df *ABS*	00000000 floatunsisf.c
00000000 l    df *ABS*	00000000 adddf3.c
00000000 l    df *ABS*	00000000 divdf3.c
00000000 l    df *ABS*	00000000 gedf2.c
00000000 l    df *ABS*	00000000 ledf2.c
00000000 l    df *ABS*	00000000 muldf3.c
00000000 l    df *ABS*	00000000 subdf3.c
00000000 l    df *ABS*	00000000 fixdfsi.c
00000000 l    df *ABS*	00000000 floatsidf.c
00000000 l    df *ABS*	00000000 floatunsidf.c
00000000 l    df *ABS*	00000000 extendsfdf2.c
00000000 l    df *ABS*	00000000 libgcc2.c
00000000 l    df *ABS*	00000000 libgcc2.c
00000000 l    df *ABS*	00000000 lib2-divmod.c
00000000 l    df *ABS*	00000000 libgcc2.c
00000000 l    df *ABS*	00000000 memcpy.c
00000000 l    df *ABS*	00000000 printf.c
00000000 l    df *ABS*	00000000 puts.c
00000000 l    df *ABS*	00000000 scanf.c
00000000 l    df *ABS*	00000000 strlen.c
00000000 l    df *ABS*	00000000 vfprintf.c
0005b24e l     O .rodata	00000010 zeroes.4404
00047bd0 l     F .text	000000bc __sbprintf
0005b25e l     O .rodata	00000010 blanks.4403
00000000 l    df *ABS*	00000000 vfscanf.c
0005b276 l     O .rodata	00000022 basefix.4359
00000000 l    df *ABS*	00000000 wsetup.c
00000000 l    df *ABS*	00000000 ctype_.c
0005b399 l     O .rodata	00000180 _ctype_b
00000000 l    df *ABS*	00000000 dtoa.c
0004966c l     F .text	00000200 quorem
00000000 l    df *ABS*	00000000 fflush.c
00000000 l    df *ABS*	00000000 findfp.c
0004b19c l     F .text	00000008 __fp_unlock
0004b1b0 l     F .text	0000019c __sinit.part.1
0004b34c l     F .text	00000008 __fp_lock
00000000 l    df *ABS*	00000000 fread.c
00000000 l    df *ABS*	00000000 mallocr.c
00000000 l    df *ABS*	00000000 fvwrite.c
00000000 l    df *ABS*	00000000 fwalk.c
00000000 l    df *ABS*	00000000 impure.c
0005ba8c l     O .rwdata	00000424 impure_data
00000000 l    df *ABS*	00000000 iswspace.c
00000000 l    df *ABS*	00000000 locale.c
0005bed0 l     O .rwdata	00000020 lc_ctype_charset
0005beb0 l     O .rwdata	00000020 lc_message_charset
0005bef0 l     O .rwdata	00000038 lconv
00000000 l    df *ABS*	00000000 makebuf.c
00000000 l    df *ABS*	00000000 mallocr.c
00000000 l    df *ABS*	00000000 mbrtowc.c
00000000 l    df *ABS*	00000000 mbtowc_r.c
00000000 l    df *ABS*	00000000 memchr.c
00000000 l    df *ABS*	00000000 memmove.c
00000000 l    df *ABS*	00000000 memset.c
00000000 l    df *ABS*	00000000 mprec.c
0005b53c l     O .rodata	0000000c p05.2768
00000000 l    df *ABS*	00000000 mallocr.c
00000000 l    df *ABS*	00000000 refill.c
0004e7d4 l     F .text	0000001c lflush
00000000 l    df *ABS*	00000000 s_fpclassify.c
00000000 l    df *ABS*	00000000 sbrkr.c
00000000 l    df *ABS*	00000000 sccl.c
00000000 l    df *ABS*	00000000 sf_nan.c
00000000 l    df *ABS*	00000000 sprintf.c
00000000 l    df *ABS*	00000000 stdio.c
00000000 l    df *ABS*	00000000 strcmp.c
00000000 l    df *ABS*	00000000 strtod.c
0004ee40 l     F .text	00000064 sulp
0005b684 l     O .rodata	00000014 fpi.2737
0005b698 l     O .rodata	00000028 tinytens
0005b670 l     O .rodata	00000014 fpinan.2773
00000000 l    df *ABS*	00000000 strtol.c
00000000 l    df *ABS*	00000000 strtoll_r.c
00000000 l    df *ABS*	00000000 strtoul.c
00000000 l    df *ABS*	00000000 strtoull_r.c
00000000 l    df *ABS*	00000000 vfprintf.c
0005b6c0 l     O .rodata	00000010 zeroes.4389
0005b6d0 l     O .rodata	00000010 blanks.4388
00000000 l    df *ABS*	00000000 ungetc.c
00000000 l    df *ABS*	00000000 vfprintf.c
00053480 l     F .text	000000fc __sprint_r.part.0
0005b6f0 l     O .rodata	00000010 blanks.4348
0005b6e0 l     O .rodata	00000010 zeroes.4349
00054a0c l     F .text	000000bc __sbprintf
00000000 l    df *ABS*	00000000 writer.c
00000000 l    df *ABS*	00000000 closer.c
00000000 l    df *ABS*	00000000 mallocr.c
00000000 l    df *ABS*	00000000 fclose.c
00000000 l    df *ABS*	00000000 fputwc.c
00000000 l    df *ABS*	00000000 fstatr.c
00000000 l    df *ABS*	00000000 gdtoa-gethex.c
00054fa8 l     F .text	00000100 rshift
00000000 l    df *ABS*	00000000 gdtoa-hexnan.c
00000000 l    df *ABS*	00000000 int_errno.c
00000000 l    df *ABS*	00000000 isattyr.c
00000000 l    df *ABS*	00000000 lseekr.c
00000000 l    df *ABS*	00000000 readr.c
00000000 l    df *ABS*	00000000 strncmp.c
00000000 l    df *ABS*	00000000 vfprintf.c
0005b810 l     O .rodata	00000010 blanks.4332
0005b800 l     O .rodata	00000010 zeroes.4333
00000000 l    df *ABS*	00000000 wbuf.c
00000000 l    df *ABS*	00000000 wcrtomb.c
00000000 l    df *ABS*	00000000 wctomb_r.c
00000000 l    df *ABS*	00000000 libgcc2.c
00000000 l    df *ABS*	00000000 libgcc2.c
00000000 l    df *ABS*	00000000 eqsf2.c
00000000 l    df *ABS*	00000000 gesf2.c
00000000 l    df *ABS*	00000000 lesf2.c
00000000 l    df *ABS*	00000000 eqdf2.c
00000000 l    df *ABS*	00000000 truncdfsf2.c
00000000 l    df *ABS*	00000000 alt_close.c
00058340 l     F .text	0000003c alt_get_errno
00000000 l    df *ABS*	00000000 alt_dev.c
0005844c l     F .text	0000002c alt_dev_null_write
00000000 l    df *ABS*	00000000 alt_errno.c
00000000 l    df *ABS*	00000000 alt_fstat.c
00058478 l     F .text	0000003c alt_get_errno
00000000 l    df *ABS*	00000000 alt_isatty.c
00058564 l     F .text	0000003c alt_get_errno
00000000 l    df *ABS*	00000000 alt_load.c
00058644 l     F .text	00000068 alt_load_section
00000000 l    df *ABS*	00000000 alt_lseek.c
00058730 l     F .text	0000003c alt_get_errno
00000000 l    df *ABS*	00000000 alt_main.c
00000000 l    df *ABS*	00000000 alt_malloc_lock.c
00000000 l    df *ABS*	00000000 alt_read.c
00058904 l     F .text	0000003c alt_get_errno
00000000 l    df *ABS*	00000000 alt_release_fd.c
00000000 l    df *ABS*	00000000 alt_sbrk.c
0005d570 l     O .rwdata	00000004 heap_end
00000000 l    df *ABS*	00000000 alt_usleep.c
00000000 l    df *ABS*	00000000 alt_write.c
00058b80 l     F .text	0000003c alt_get_errno
00000000 l    df *ABS*	00000000 alt_sys_init.c
00058cb4 l     F .text	00000034 alt_dev_reg
0005c4d8 l     O .rwdata	00001060 jtag_uart
00000000 l    df *ABS*	00000000 altera_avalon_jtag_uart_fd.c
00000000 l    df *ABS*	00000000 altera_avalon_jtag_uart_init.c
00058fa4 l     F .text	0000020c altera_avalon_jtag_uart_irq
000591b0 l     F .text	000000a0 altera_avalon_jtag_uart_timeout
00000000 l    df *ABS*	00000000 altera_avalon_jtag_uart_ioctl.c
00000000 l    df *ABS*	00000000 altera_avalon_jtag_uart_read.c
00000000 l    df *ABS*	00000000 altera_avalon_jtag_uart_write.c
00000000 l    df *ABS*	00000000 altera_avalon_timer_sc.c
000597e8 l     F .text	00000078 alt_avalon_timer_sc_irq
00000000 l    df *ABS*	00000000 alt_alarm_start.c
00000000 l    df *ABS*	00000000 alt_busy_sleep.c
00000000 l    df *ABS*	00000000 alt_dcache_flush_all.c
00000000 l    df *ABS*	00000000 alt_dev_llist_insert.c
00059ba8 l     F .text	0000003c alt_get_errno
00000000 l    df *ABS*	00000000 alt_do_ctors.c
00000000 l    df *ABS*	00000000 alt_do_dtors.c
00000000 l    df *ABS*	00000000 alt_icache_flush_all.c
00000000 l    df *ABS*	00000000 alt_iic.c
00000000 l    df *ABS*	00000000 alt_iic_isr_register.c
00000000 l    df *ABS*	00000000 alt_io_redirect.c
0005a01c l     F .text	000000c4 alt_open_fd
00000000 l    df *ABS*	00000000 alt_irq_vars.c
00000000 l    df *ABS*	00000000 alt_open.c
0005a15c l     F .text	0000003c alt_get_errno
0005a198 l     F .text	000000c4 alt_file_locked
00000000 l    df *ABS*	00000000 alt_tick.c
00000000 l    df *ABS*	00000000 altera_nios2_gen2_irq.c
00000000 l    df *ABS*	00000000 alt_find_dev.c
00000000 l    df *ABS*	00000000 alt_find_file.c
00000000 l    df *ABS*	00000000 alt_get_fd.c
00000000 l    df *ABS*	00000000 alt_icache_flush.c
00000000 l    df *ABS*	00000000 atexit.c
00000000 l    df *ABS*	00000000 exit.c
00000000 l    df *ABS*	00000000 memcmp.c
00000000 l    df *ABS*	00000000 __atexit.c
00000000 l    df *ABS*	00000000 __call_atexit.c
00000000 l    df *ABS*	00000000 alt_exit.c
0004e0f8 g     F .text	00000074 _mprec_log10
000402e4 g     F .text	00000100 I2C_Read
0004e1e4 g     F .text	0000008c __any_on
00055b34 g     F .text	00000054 _isatty_r
0005b548 g     O .rodata	00000028 __mprec_tinytens
00058840 g     F .text	0000007c alt_main
000457e4 g     F .text	000000c0 _puts_r
0005f310 g     O .bss	00000100 alt_irq
00055b88 g     F .text	00000060 _lseek_r
0005d580 g       *ABS*	00000000 __flash_rwdata_start
00058110 g     F .text	00000088 .hidden __eqdf2
0005f410 g       *ABS*	00000000 __alt_heap_start
000457a8 g     F .text	0000003c printf
0005727c g     F .text	0000009c _wcrtomb_r
0004ed00 g     F .text	0000005c __sseek
0004b4ec g     F .text	00000010 __sinit
00057124 g     F .text	00000140 __swbuf_r
0004c244 g     F .text	0000007c _setlocale_r
0004b354 g     F .text	00000068 __sfmoreglue
00053468 g     F .text	00000018 ungetc
000588e0 g     F .text	00000024 __malloc_unlock
0004eea4 g     F .text	000015f8 _strtod_r
0004cff0 g     F .text	0000015c memmove
0004b4d4 g     F .text	00000018 _cleanup
0004d274 g     F .text	000000a8 _Balloc
00043eac g     F .text	000000dc .hidden __gtdf2
0005a554 g     F .text	00000024 altera_nios2_gen2_irq_init
00040abc g     F .text	00000130 i2c_write
00040000 g     F .entry	0000001c __reset
00040020 g       *ABS*	00000000 __flash_exceptions_start
00054f4c g     F .text	0000005c _fstat_r
0005f2cc g     O .bss	00000004 errno
000494b0 g     F .text	0000001c __svfscanf
0004ec7c g     F .text	00000008 __seofread
00055ee8 g     F .text	0000123c ___svfiprintf_internal_r
0005f2d4 g     O .bss	00000004 alt_argv
00065538 g       *ABS*	00000000 _gp
00058b50 g     F .text	00000030 usleep
00040f68 g     F .text	00000050 GUI_QueryUser
0005c358 g     O .rwdata	00000180 alt_fd_list
0005a578 g     F .text	00000090 alt_find_dev
00045630 g     F .text	00000148 memcpy
000558d8 g     F .text	0000025c __hexnan
0004053c g     F .text	000000ac I2C_Receive
0004b1a4 g     F .text	0000000c _cleanup_r
00045110 g     F .text	000000dc .hidden __floatsidf
0005a0e0 g     F .text	0000007c alt_io_redirect
00043f88 g     F .text	000000f4 .hidden __ltdf2
0005abd8 g       *ABS*	00000000 __DTOR_END__
000458a4 g     F .text	00000014 puts
0004cd94 g     F .text	000000d8 mbrtowc
0004e9c4 g     F .text	00000074 __fpclassifyd
000494cc g     F .text	0000004c _vfscanf_r
0004e054 g     F .text	000000a4 __ratio
000549f0 g     F .text	0000001c __vfiprintf_internal
000593a8 g     F .text	0000021c altera_avalon_jtag_uart_read
00045778 g     F .text	00000030 _printf_r
00045574 g     F .text	00000064 .hidden __udivsi3
000585a0 g     F .text	000000a4 isatty
0004c214 g     F .text	00000030 iswspace
0005b598 g     O .rodata	000000c8 __mprec_tens
0004c2c0 g     F .text	0000000c __locale_charset
00058048 g     F .text	000000c8 .hidden __lesf2
00045408 g     F .text	00000074 .hidden __fixunsdfsi
0005a7b4 g     F .text	00000090 alt_icache_flush
000403e4 g     F .text	00000158 I2C_MultipleRead
0005f2c8 g     O .bss	00000004 __malloc_top_pad
0004105c g     F .text	00000104 TEST_Temperature
00050d34 g     F .text	0000001c strtoul
0005d544 g     O .rwdata	00000004 __mb_cur_max
0004c2f0 g     F .text	0000000c _localeconv_r
00050d50 g     F .text	000002d8 _strtoull_r
0004d680 g     F .text	0000003c __i2b
0004bbd0 g     F .text	000004bc __sfvwrite_r
0004ea38 g     F .text	00000054 _sbrk_r
00055be8 g     F .text	00000060 _read_r
0005d568 g     O .rwdata	00000004 alt_max_fd
00054c40 g     F .text	000000f0 _fclose_r
0004b16c g     F .text	00000030 fflush
0005f2c4 g     O .bss	00000004 __malloc_max_sbrked_mem
00040d44 g     F .text	00000190 CLOCK_Test
000406f8 g     F .text	00000138 I2CL_Read
00045294 g     F .text	00000110 .hidden __extendsfdf2
00042d18 g     F .text	000008ac .hidden __adddf3
00057f14 g     F .text	00000078 .hidden __nesf2
0004ddfc g     F .text	0000010c __b2d
000579dc g     F .text	00000538 .hidden __umoddi3
0005876c g     F .text	000000d4 lseek
0005d53c g     O .rwdata	00000004 _global_impure_ptr
0004e270 g     F .text	00000564 _realloc_r
0005f410 g       *ABS*	00000000 __bss_end
00059f2c g     F .text	000000f0 alt_iic_isr_register
0005a44c g     F .text	00000108 alt_tick
0005b700 g     O .rodata	00000100 __hexdig
0005b9d8 g     O .rwdata	000000b4 gszGi57x_ConfigTable
00057464 g     F .text	00000578 .hidden __udivdi3
00054ea8 g     F .text	00000024 _fputwc_r
0005b570 g     O .rodata	00000028 __mprec_bigtens
0004d464 g     F .text	00000104 __s2b
000451ec g     F .text	000000a8 .hidden __floatunsidf
0004db3c g     F .text	00000060 __mcmp
0004b50c g     F .text	00000018 __fp_lock_all
00059ee0 g     F .text	0000004c alt_ic_irq_enabled
0004020c g     F .text	000000d8 I2C_Write
0005a3b0 g     F .text	0000009c alt_alarm_stop
000507ec g     F .text	0000001c strtol
0005f2dc g     O .bss	00000004 alt_irq_active
000400ec g     F .exceptions	000000d4 alt_irq_handler
0005c330 g     O .rwdata	00000028 alt_dev_null
000409b8 g     F .text	0000008c i2c_start
00059b60 g     F .text	00000048 alt_dcache_flush_all
0004d568 g     F .text	00000068 __hi0bits
00045090 g     F .text	00000080 .hidden __fixdfsi
0005049c g     F .text	00000018 strtod
0005d580 g       *ABS*	00000000 __ram_rwdata_end
0005d560 g     O .rwdata	00000008 alt_dev_list
00058bbc g     F .text	000000f8 write
00057f8c g     F .text	000000bc .hidden __gtsf2
0005b84c g       *ABS*	00000000 __ram_rodata_end
000584b4 g     F .text	000000b0 fstat
00043f88 g     F .text	000000f4 .hidden __ledf2
0004d8b4 g     F .text	00000140 __pow5mult
00053594 g     F .text	0000145c ___vfiprintf_internal_r
0005f2bc g     O .bss	00000004 __nlocale_changed
000455d8 g     F .text	00000058 .hidden __umodsi3
000458f4 g     F .text	00000030 _scanf_r
0005f410 g       *ABS*	00000000 end
00058ee4 g     F .text	000000c0 altera_avalon_jtag_uart_init
0005abd8 g       *ABS*	00000000 __CTOR_LIST__
0007e800 g       *ABS*	00000000 __alt_stack_pointer
00059860 g     F .text	0000007c alt_avalon_timer_sc_init
000453a4 g     F .text	00000064 .hidden __clzsi2
000595c4 g     F .text	00000224 altera_avalon_jtag_uart_write
0004b4fc g     F .text	00000004 __sfp_lock_acquire
0004cf0c g     F .text	000000e4 memchr
000459bc g     F .text	000021f8 ___vfprintf_internal_r
0004eb64 g     F .text	00000058 _sprintf_r
0004b8c0 g     F .text	00000310 _free_r
0004c2cc g     F .text	00000010 __locale_mb_cur_max
0005b84c g     O .rwdata	0000018c szFuncList
0005aa24 g     F .text	00000180 __call_exitprocs
0005f2b8 g     O .bss	00000004 __mlocale_changed
0005d548 g     O .rwdata	00000004 __malloc_sbrk_base
000401c0 g     F .text	0000004c _start
0005f2e0 g     O .bss	00000004 _alt_tick_rate
00050808 g     F .text	000002e0 _strtoll_r
000427bc g     F .text	00000070 .hidden __floatundidf
0004d9f4 g     F .text	00000148 __lshift
0005f2e4 g     O .bss	00000004 _alt_nticks
00058940 g     F .text	000000fc read
00058d20 g     F .text	00000060 alt_sys_init
00055d18 g     F .text	000001d0 __ssprint_r
0005a90c g     F .text	00000118 __register_exitproc
00055c48 g     F .text	000000d0 strncmp
0004d6bc g     F .text	000001f8 __multiply
00059250 g     F .text	00000068 altera_avalon_jtag_uart_close
0005b84c g       *ABS*	00000000 __ram_rwdata_start
0005abd8 g       *ABS*	00000000 __ram_rodata_start
0005f2e8 g     O .bss	00000028 __malloc_current_mallinfo
00057f14 g     F .text	00000078 .hidden __eqsf2
0004df08 g     F .text	0000014c __d2b
00041a78 g     F .text	000009d0 SI57x_Config
00058d80 g     F .text	00000060 altera_avalon_jtag_uart_read_fd
00050ae8 g     F .text	0000024c _strtoul_r
0005a710 g     F .text	000000a4 alt_get_fd
00040ed4 g     F .text	00000094 GUI_ShowMenu
00059a08 g     F .text	00000158 alt_busy_sleep
00054b28 g     F .text	00000054 _close_r
0005a890 g     F .text	0000007c memcmp
00058e40 g     F .text	00000050 altera_avalon_jtag_uart_close_fd
0005f410 g       *ABS*	00000000 __alt_stack_base
00058e90 g     F .text	00000054 altera_avalon_jtag_uart_ioctl_fd
00049518 g     F .text	00000154 __swsetup_r
000435c4 g     F .text	000008e8 .hidden __divdf3
0004b3bc g     F .text	00000118 __sfp
0004e16c g     F .text	00000078 __copybits
0005bf28 g     O .rwdata	00000408 __malloc_av_
0004b508 g     F .text	00000004 __sinit_lock_release
00040a44 g     F .text	00000078 i2c_stop
0004407c g     F .text	00000718 .hidden __muldf3
0004ec28 g     F .text	00000054 __sread
0004b768 g     F .text	00000034 fread
0005a608 g     F .text	00000108 alt_find_file
00059be4 g     F .text	000000a4 alt_dev_llist_insert
000588bc g     F .text	00000024 __malloc_lock
00058aa0 g     F .text	000000b0 sbrk
00051028 g     F .text	000021d8 ___svfprintf_internal_r
0004b110 g     F .text	0000005c _fflush_r
00054b7c g     F .text	000000c4 _calloc_r
0005f2b4 g       *ABS*	00000000 __bss_start
0004d14c g     F .text	00000128 memset
00040fb8 g     F .text	000000a4 main
0005f2d8 g     O .bss	00000004 alt_envp
0005f2c0 g     O .bss	00000004 __malloc_max_total_mem
00058de0 g     F .text	00000060 altera_avalon_jtag_uart_write_fd
00040bec g     F .text	00000158 i2c_read
00057264 g     F .text	00000018 __swbuf
00058048 g     F .text	000000c8 .hidden __ltsf2
0004b53c g     F .text	0000022c _fread_r
0004ed5c g     F .text	00000008 __sclose
0007e800 g       *ABS*	00000000 __alt_heap_limit
00054d30 g     F .text	00000014 fclose
000505b4 g     F .text	00000238 _strtol_r
00058198 g     F .text	000001a8 .hidden __truncdfsf2
0004986c g     F .text	00001688 _dtoa_r
0004c4dc g     F .text	0000080c _malloc_r
000573d8 g     F .text	00000030 __ascii_wctomb
0005d56c g     O .rwdata	00000004 alt_errno
00053200 g     F .text	000000d4 __submore
0004c08c g     F .text	000000c4 _fwalk
0004ceb0 g     F .text	0000005c _mbtowc_r
0004547c g     F .text	00000084 .hidden __divsi3
0004b79c g     F .text	00000124 _malloc_trim_r
0005abd8 g       *ABS*	00000000 __CTOR_END__
0004282c g     F .text	000003fc .hidden __mulsf3
00042448 g     F .text	000002e4 SI57x_Config_Dump
0004ed64 g     F .text	000000dc strcmp
0005abd8 g       *ABS*	00000000 __flash_rodata_start
0005abd8 g       *ABS*	00000000 __DTOR_LIST__
00058110 g     F .text	00000088 .hidden __nedf2
0004272c g     F .text	00000090 .hidden __fixunsdfdi
00058ce8 g     F .text	00000038 alt_irq_init
00058a3c g     F .text	00000064 alt_release_fd
0004ebbc g     F .text	0000006c sprintf
0005b108 g     O .rodata	00000100 .hidden __clz_tab
0005f2b4 g     O .bss	00000004 _PathLocale
000504b4 g     F .text	00000100 strtof
0005a844 g     F .text	00000014 atexit
00057f8c g     F .text	000000bc .hidden __gesf2
00054ac8 g     F .text	00000060 _write_r
0004c2fc g     F .text	00000018 setlocale
000458b8 g     F .text	0000003c scanf
0004eb5c g     F .text	00000008 nanf
0005d540 g     O .rwdata	00000004 _impure_ptr
0005f2d0 g     O .bss	00000004 alt_argc
0004aef4 g     F .text	0000021c __sflush_r
0004cce8 g     F .text	000000ac _mbrtowc_r
00059ce8 g     F .text	00000060 _do_dtors
0004c2e8 g     F .text	00000008 __locale_cjk_lang
00040830 g     F .text	00000188 I2CL_MultipleRead
0004e7f0 g     F .text	000001d4 __srefill_r
00040020 g       .exceptions	00000000 alt_irq_entry
0004ce6c g     F .text	00000044 __ascii_mbtowc
0004dd98 g     F .text	00000064 __ulp
0004b524 g     F .text	00000018 __fp_unlock_all
0005d558 g     O .rwdata	00000008 alt_fs_list
00040020 g       *ABS*	00000000 __ram_exceptions_start
0004c314 g     F .text	0000000c localeconv
00040000 g       *ABS*	00000000 __alt_mem_onchip_memory2
00059d7c g     F .text	00000050 alt_ic_isr_register
0005d580 g       *ABS*	00000000 _edata
0005f410 g       *ABS*	00000000 _end
00041160 g     F .text	00000340 TEST_CDCM
00054d44 g     F .text	00000164 __fputwc
000401c0 g       *ABS*	00000000 __ram_exceptions_end
00049448 g     F .text	00000068 vfscanf
000592b8 g     F .text	000000f0 altera_avalon_jtag_uart_ioctl
00059e54 g     F .text	0000008c alt_ic_irq_disable
0004ec84 g     F .text	0000007c __swrite
0005d54c g     O .rwdata	00000004 __malloc_trim_threshold
0004c2dc g     F .text	0000000c __locale_msgcharset
0005a858 g     F .text	00000038 exit
0004c150 g     F .text	000000c4 _fwalk_reent
00042c28 g     F .text	000000f0 .hidden __floatunsisf
0004db9c g     F .text	000001fc __mdiff
00045500 g     F .text	00000074 .hidden __modsi3
0005d538 g     O .rwdata	00000004 __ctype_ptr__
0007e800 g       *ABS*	00000000 __alt_data_end
00040020 g     F .exceptions	00000000 alt_exception
0004b500 g     F .text	00000004 __sfp_lock_release
0004ea8c g     F .text	000000d0 __sccl
0005b298 g     O .rodata	00000101 _ctype_
0005d550 g     O .rwdata	00000004 __mbtowc
0005aba4 g     F .text	00000034 _exit
000598dc g     F .text	0000012c alt_alarm_start
0004c320 g     F .text	000001bc __smakebuf_r
00045924 g     F .text	00000098 strlen
0005a25c g     F .text	00000154 open
000414a0 g     F .text	000004d4 TEST_Si570
00043eac g     F .text	000000dc .hidden __gedf2
000550a8 g     F .text	00000830 __gethex
0005d554 g     O .rwdata	00000004 __wctomb
0005357c g     F .text	00000018 __sprint_r
00059d48 g     F .text	00000034 alt_icache_flush_all
0005d574 g     O .rwdata	00000004 alt_priority_mask
00059dcc g     F .text	00000088 alt_ic_irq_enable
00047bb4 g     F .text	0000001c __vfprintf_internal
00057408 g     F .text	0000005c _wctomb_r
00044794 g     F .text	000008fc .hidden __subdf3
00041974 g     F .text	00000104 si57x_find_DIV_NI
0004d5d0 g     F .text	000000b0 __lo0bits
00047c8c g     F .text	000017bc __svfscanf_r
0005d578 g     O .rwdata	00000008 alt_alarm_list
000532d4 g     F .text	00000194 _ungetc_r
00059c88 g     F .text	00000060 _do_ctors
000405e8 g     F .text	00000110 I2CL_Write
00057318 g     F .text	000000c0 wcrtomb
0005837c g     F .text	000000d0 close
000586ac g     F .text	00000084 alt_load
00054ecc g     F .text	00000080 fputwc
0004b504 g     F .text	00000004 __sinit_lock_acquire
0004d344 g     F .text	00000120 __multadd
0004d31c g     F .text	00000028 _Bfree



Disassembly of section .entry:

00040000 <__reset>:
#if NIOS2_ICACHE_SIZE > 0 && defined(ALT_ALLOW_CODE_AT_RESET) && (!defined(ALT_SIM_OPTIMIZE) || defined(NIOS2_ECC_PRESENT))
    /* Assume the instruction cache size is always a power of two. */
#if NIOS2_ICACHE_SIZE > 0x8000
    movhi r2, %hi(NIOS2_ICACHE_SIZE)
#else
    movui r2, NIOS2_ICACHE_SIZE
   40000:	00840014 	movui	r2,4096
#endif

0:
    initi r2
   40004:	1001483a 	initi	r2
    addi r2, r2, -NIOS2_ICACHE_LINE_SIZE
   40008:	10bff804 	addi	r2,r2,-32
    bgt r2, zero, 0b
   4000c:	00bffd16 	blt	zero,r2,40004 <__alt_data_end+0xfffc1804>
 * Jump to the _start entry point in the .text section if reset code
 * is allowed or if optimizing for RTL simulation.
 */
#if defined(ALT_ALLOW_CODE_AT_RESET) || defined(ALT_SIM_OPTIMIZE)
    /* Jump to the _start entry point in the .text section. */
    movhi r1, %hi(_start)
   40010:	00400134 	movhi	at,4
    ori r1, r1, %lo(_start)
   40014:	08407014 	ori	at,at,448
    jmp r1
   40018:	0800683a 	jmp	at
   4001c:	00000000 	call	0 <__alt_mem_onchip_memory2-0x40000>

Disassembly of section .exceptions:

00040020 <alt_exception>:

#else /* ALT_EXCEPTION_STACK disabled */
        /* 
         * Reserve space on normal stack for registers about to be pushed.
         */
        addi  sp, sp, -76
   40020:	deffed04 	addi	sp,sp,-76
         * documentation for details).
         *
         * Leave a gap in the stack frame at 4(sp) for the muldiv handler to
         * store zero into.
         */
        stw   ra,  0(sp)
   40024:	dfc00015 	stw	ra,0(sp)
        stw   r1,   8(sp)
   40028:	d8400215 	stw	at,8(sp)
        stw   r2,  12(sp)
   4002c:	d8800315 	stw	r2,12(sp)
        stw   r3,  16(sp)
   40030:	d8c00415 	stw	r3,16(sp)
        stw   r4,  20(sp)
   40034:	d9000515 	stw	r4,20(sp)
        stw   r5,  24(sp)
   40038:	d9400615 	stw	r5,24(sp)
        stw   r6,  28(sp)
   4003c:	d9800715 	stw	r6,28(sp)
        stw   r7,  32(sp)
   40040:	d9c00815 	stw	r7,32(sp)
        rdctl r5, estatus   /* Read early to avoid usage stall */
   40044:	000b307a 	rdctl	r5,estatus
        stw   r8,  36(sp)
   40048:	da000915 	stw	r8,36(sp)
        stw   r9,  40(sp)
   4004c:	da400a15 	stw	r9,40(sp)
        stw   r10, 44(sp)
   40050:	da800b15 	stw	r10,44(sp)
        stw   r11, 48(sp)
   40054:	dac00c15 	stw	r11,48(sp)
        stw   r12, 52(sp)
   40058:	db000d15 	stw	r12,52(sp)
        stw   r13, 56(sp)
   4005c:	db400e15 	stw	r13,56(sp)
        stw   r14, 60(sp)
   40060:	db800f15 	stw	r14,60(sp)
        stw   r15, 64(sp)
   40064:	dbc01015 	stw	r15,64(sp)
        /*
         * ea-4 contains the address of the instruction being executed
         * when the exception occured. For interrupt exceptions, we will
         * will be re-issue the isntruction. Store it in 72(sp)
         */
        stw   r5,  68(sp)  /* estatus */
   40068:	d9401115 	stw	r5,68(sp)
        addi  r15, ea, -4  /* instruction that caused exception */
   4006c:	ebffff04 	addi	r15,ea,-4
        stw   r15,  72(sp)
   40070:	dbc01215 	stw	r15,72(sp)
#else
        /*
         * Test to see if the exception was a software exception or caused 
         * by an external interrupt, and vector accordingly.
         */
        rdctl r4, ipending
   40074:	0009313a 	rdctl	r4,ipending
        andi  r2, r5, 1
   40078:	2880004c 	andi	r2,r5,1
        beq   r2, zero, .Lnot_irq
   4007c:	10000326 	beq	r2,zero,4008c <alt_exception+0x6c>
        beq   r4, zero, .Lnot_irq
   40080:	20000226 	beq	r4,zero,4008c <alt_exception+0x6c>
        /*
         * Now that all necessary registers have been preserved, call 
         * alt_irq_handler() to process the interrupts.
         */

        call alt_irq_handler
   40084:	00400ec0 	call	400ec <alt_irq_handler>

        .section .exceptions.irqreturn, "xa"

        br    .Lexception_exit
   40088:	00000306 	br	40098 <alt_exception_unknown+0x4>
         * upon completion, so we write ea (address of instruction *after*
         * the one where the exception occured) into 72(sp). The actual
         * instruction that caused the exception is written in r2, which these
         * handlers will utilize.
         */
        stw ea, 72(sp) /* EA is PC+4 so will skip over instruction causing exception */
   4008c:	df401215 	stw	ea,72(sp)
.Lunknown_16bit:
        addi.n r4, r4, 2 /* Need PC+2 to skip over instruction causing exception */
        stw r4, 72(sp)

#else /* CDX is not Enabled and all instructions are 32bits */
        ldw r2, -4(ea) /* Instruction value that caused exception */
   40090:	e8bfff17 	ldw	r2,-4(ea)

00040094 <alt_exception_unknown>:
#ifdef NIOS2_HAS_DEBUG_STUB
       /*
        *  Either tell the user now (if there is a debugger attached) or go into
        *  the debug monitor which will loop until a debugger is attached.
        */
        break
   40094:	003da03a 	break	0
        /* 
         * Restore the saved registers, so that all general purpose registers 
         * have been restored to their state at the time the interrupt occured.
         */

        ldw   r5,  68(sp)
   40098:	d9401117 	ldw	r5,68(sp)
        ldw   ea,  72(sp)  /* This becomes the PC once eret is executed */
   4009c:	df401217 	ldw	ea,72(sp)
        ldw   ra,   0(sp)
   400a0:	dfc00017 	ldw	ra,0(sp)

        wrctl estatus, r5
   400a4:	2801707a 	wrctl	estatus,r5

        ldw   r1,   8(sp)
   400a8:	d8400217 	ldw	at,8(sp)
        ldw   r2,  12(sp)
   400ac:	d8800317 	ldw	r2,12(sp)
        ldw   r3,  16(sp)
   400b0:	d8c00417 	ldw	r3,16(sp)
        ldw   r4,  20(sp)
   400b4:	d9000517 	ldw	r4,20(sp)
        ldw   r5,  24(sp)
   400b8:	d9400617 	ldw	r5,24(sp)
        ldw   r6,  28(sp)
   400bc:	d9800717 	ldw	r6,28(sp)
        ldw   r7,  32(sp)
   400c0:	d9c00817 	ldw	r7,32(sp)

#if defined(ALT_EXCEPTION_STACK) && defined(ALT_STACK_CHECK)
        ldw   et, %gprel(alt_exception_old_stack_limit)(gp)
#endif

        ldw   r8,  36(sp)
   400c4:	da000917 	ldw	r8,36(sp)
        ldw   r9,  40(sp)
   400c8:	da400a17 	ldw	r9,40(sp)
        ldw   r10, 44(sp)
   400cc:	da800b17 	ldw	r10,44(sp)
        ldw   r11, 48(sp)
   400d0:	dac00c17 	ldw	r11,48(sp)
        ldw   r12, 52(sp)
   400d4:	db000d17 	ldw	r12,52(sp)
        ldw   r13, 56(sp)
   400d8:	db400e17 	ldw	r13,56(sp)
        ldw   r14, 60(sp)
   400dc:	db800f17 	ldw	r14,60(sp)
        ldw   r15, 64(sp)
   400e0:	dbc01017 	ldw	r15,64(sp)
        stw   et, %gprel(alt_stack_limit_value)(gp)
        stw   zero, %gprel(alt_exception_old_stack_limit)(gp)
#endif /* ALT_STACK_CHECK */
        ldw   sp,  76(sp)
#else /* ALT_EXCEPTION_STACK disabled */
        addi  sp, sp, 76
   400e4:	dec01304 	addi	sp,sp,76

        /*
         * Return to the interrupted instruction.
         */

        eret
   400e8:	ef80083a 	eret

000400ec <alt_irq_handler>:
 * instruction is present if the macro ALT_CI_INTERRUPT_VECTOR defined.
 */

void alt_irq_handler (void) __attribute__ ((section (".exceptions")));
void alt_irq_handler (void)
{
   400ec:	defff904 	addi	sp,sp,-28
   400f0:	dfc00615 	stw	ra,24(sp)
   400f4:	df000515 	stw	fp,20(sp)
   400f8:	df000504 	addi	fp,sp,20
  
  /*
   * Notify the operating system that we are at interrupt level.
   */ 
  
  ALT_OS_INT_ENTER();
   400fc:	0001883a 	nop
#ifndef NIOS2_EIC_PRESENT
static ALT_INLINE alt_u32 ALT_ALWAYS_INLINE alt_irq_pending (void)
{
  alt_u32 active;

  NIOS2_READ_IPENDING (active);
   40100:	0005313a 	rdctl	r2,ipending
   40104:	e0bffe15 	stw	r2,-8(fp)

  return active;
   40108:	e0bffe17 	ldw	r2,-8(fp)
   * Consider the case where the high priority interupt is asserted during
   * the interrupt entry sequence for a lower priority interrupt to see why
   * this is the case.
   */

  active = alt_irq_pending ();
   4010c:	e0bffb15 	stw	r2,-20(fp)

  do
  {
    i = 0;
   40110:	e03ffd15 	stw	zero,-12(fp)
    mask = 1;
   40114:	00800044 	movi	r2,1
   40118:	e0bffc15 	stw	r2,-16(fp)
     * called to clear the interrupt condition.
     */

    do
    {
      if (active & mask)
   4011c:	e0fffb17 	ldw	r3,-20(fp)
   40120:	e0bffc17 	ldw	r2,-16(fp)
   40124:	1884703a 	and	r2,r3,r2
   40128:	10001426 	beq	r2,zero,4017c <alt_irq_handler+0x90>
      { 
#ifdef ALT_ENHANCED_INTERRUPT_API_PRESENT
        alt_irq[i].handler(alt_irq[i].context); 
   4012c:	008001b4 	movhi	r2,6
   40130:	10bcc404 	addi	r2,r2,-3312
   40134:	e0fffd17 	ldw	r3,-12(fp)
   40138:	180690fa 	slli	r3,r3,3
   4013c:	10c5883a 	add	r2,r2,r3
   40140:	10c00017 	ldw	r3,0(r2)
   40144:	008001b4 	movhi	r2,6
   40148:	10bcc404 	addi	r2,r2,-3312
   4014c:	e13ffd17 	ldw	r4,-12(fp)
   40150:	200890fa 	slli	r4,r4,3
   40154:	1105883a 	add	r2,r2,r4
   40158:	10800104 	addi	r2,r2,4
   4015c:	10800017 	ldw	r2,0(r2)
   40160:	1009883a 	mov	r4,r2
   40164:	183ee83a 	callr	r3
#else
        alt_irq[i].handler(alt_irq[i].context, i); 
#endif
        break;
   40168:	0001883a 	nop
#ifndef NIOS2_EIC_PRESENT
static ALT_INLINE alt_u32 ALT_ALWAYS_INLINE alt_irq_pending (void)
{
  alt_u32 active;

  NIOS2_READ_IPENDING (active);
   4016c:	0005313a 	rdctl	r2,ipending
   40170:	e0bfff15 	stw	r2,-4(fp)

  return active;
   40174:	e0bfff17 	ldw	r2,-4(fp)
   40178:	00000706 	br	40198 <alt_irq_handler+0xac>
      }
      mask <<= 1;
   4017c:	e0bffc17 	ldw	r2,-16(fp)
   40180:	1085883a 	add	r2,r2,r2
   40184:	e0bffc15 	stw	r2,-16(fp)
      i++;
   40188:	e0bffd17 	ldw	r2,-12(fp)
   4018c:	10800044 	addi	r2,r2,1
   40190:	e0bffd15 	stw	r2,-12(fp)

    } while (1);
   40194:	003fe106 	br	4011c <__alt_data_end+0xfffc191c>

    active = alt_irq_pending ();
   40198:	e0bffb15 	stw	r2,-20(fp)
    
  } while (active);
   4019c:	e0bffb17 	ldw	r2,-20(fp)
   401a0:	103fdb1e 	bne	r2,zero,40110 <__alt_data_end+0xfffc1910>

  /*
   * Notify the operating system that interrupt processing is complete.
   */ 

  ALT_OS_INT_EXIT();
   401a4:	0001883a 	nop
}
   401a8:	0001883a 	nop
   401ac:	e037883a 	mov	sp,fp
   401b0:	dfc00117 	ldw	ra,4(sp)
   401b4:	df000017 	ldw	fp,0(sp)
   401b8:	dec00204 	addi	sp,sp,8
   401bc:	f800283a 	ret

Disassembly of section .text:

000401c0 <_start>:

    /* Assume the data cache size is always a power of two. */
#if NIOS2_DCACHE_SIZE > 0x8000
    movhi r2, %hi(NIOS2_DCACHE_SIZE)
#else
    movui r2, NIOS2_DCACHE_SIZE
   401c0:	00820014 	movui	r2,2048
#endif

0:
    initd 0(r2)
   401c4:	10000033 	initd	0(r2)
#ifdef NIOS2_ECC_PRESENT
    addi r2, r2, -4
#else
    addi r2, r2, -NIOS2_DCACHE_LINE_SIZE
   401c8:	10bff804 	addi	r2,r2,-32
#endif
    bgt r2, zero, 0b
   401cc:	00bffd16 	blt	zero,r2,401c4 <__alt_data_end+0xfffc19c4>

    /*
     * Now that the caches are initialized, set up the stack pointer and global pointer.
     * The values provided by the linker are assumed to be correctly aligned.
     */
    movhi sp, %hi(__alt_stack_pointer)
   401d0:	06c001f4 	movhi	sp,7
    ori sp, sp, %lo(__alt_stack_pointer)
   401d4:	defa0014 	ori	sp,sp,59392
    movhi gp, %hi(_gp)
   401d8:	068001b4 	movhi	gp,6
    ori gp, gp, %lo(_gp)
   401dc:	d6954e14 	ori	gp,gp,21816
 */
#ifndef ALT_SIM_OPTIMIZE
    /* Log that the BSS is about to be cleared. */
    ALT_LOG_PUTS(alt_log_msg_bss)

    movhi r2, %hi(__bss_start)
   401e0:	00800174 	movhi	r2,5
    ori r2, r2, %lo(__bss_start)
   401e4:	10bcad14 	ori	r2,r2,62132

    movhi r3, %hi(__bss_end)
   401e8:	00c00174 	movhi	r3,5
    ori r3, r3, %lo(__bss_end)
   401ec:	18fd0414 	ori	r3,r3,62480

    beq r2, r3, 1f
   401f0:	10c00326 	beq	r2,r3,40200 <_start+0x40>

0:
    stw zero, (r2)
   401f4:	10000015 	stw	zero,0(r2)
    addi r2, r2, 4
   401f8:	10800104 	addi	r2,r2,4
    bltu r2, r3, 0b
   401fc:	10fffd36 	bltu	r2,r3,401f4 <__alt_data_end+0xfffc19f4>
     * section aren't defined until alt_load() has been called).
     */
    mov   et, zero
#endif

    call alt_load
   40200:	00586ac0 	call	586ac <alt_load>

    /* Log that alt_main is about to be called. */
    ALT_LOG_PUTS(alt_log_msg_alt_main)

    /* Call the C entry point. It should never return. */
    call alt_main
   40204:	00588400 	call	58840 <alt_main>

00040208 <alt_after_alt_main>:

    /* Wait in infinite loop in case alt_main does return. */
alt_after_alt_main:
    br alt_after_alt_main
   40208:	003fff06 	br	40208 <__alt_data_end+0xfffc1a08>

0004020c <I2C_Write>:
bool i2c_write(alt_u32 clk_base, alt_u32 data_base, alt_u8 Data);
void i2c_read(alt_u32 clk_base, alt_u32 data_base, alt_u8 *pData, bool bAck);



bool I2C_Write(alt_u32 clk_base, alt_u32 data_base, alt_8 DeviceAddr, alt_u8 ControlAddr, alt_u8 ControlData){
   4020c:	defff804 	addi	sp,sp,-32
   40210:	dfc00715 	stw	ra,28(sp)
   40214:	df000615 	stw	fp,24(sp)
   40218:	df000604 	addi	fp,sp,24
   4021c:	e13ffb15 	stw	r4,-20(fp)
   40220:	e17ffc15 	stw	r5,-16(fp)
   40224:	3009883a 	mov	r4,r6
   40228:	3807883a 	mov	r3,r7
   4022c:	e0800217 	ldw	r2,8(fp)
   40230:	e13ffd05 	stb	r4,-12(fp)
   40234:	e0fffe05 	stb	r3,-8(fp)
   40238:	e0bfff05 	stb	r2,-4(fp)
    bool bSuccess = TRUE;
   4023c:	00800044 	movi	r2,1
   40240:	e0bffa15 	stw	r2,-24(fp)
    //alt_u8 DeviceAddr;
    
    // device id
    //DeviceAddr = HMB_E2_I2C_ID;

    i2c_start(clk_base, data_base);
   40244:	e17ffc17 	ldw	r5,-16(fp)
   40248:	e13ffb17 	ldw	r4,-20(fp)
   4024c:	00409b80 	call	409b8 <i2c_start>
    if (!i2c_write(clk_base, data_base, DeviceAddr)){  // send ID
   40250:	e0bffd03 	ldbu	r2,-12(fp)
   40254:	10803fcc 	andi	r2,r2,255
   40258:	100d883a 	mov	r6,r2
   4025c:	e17ffc17 	ldw	r5,-16(fp)
   40260:	e13ffb17 	ldw	r4,-20(fp)
   40264:	0040abc0 	call	40abc <i2c_write>
   40268:	1000011e 	bne	r2,zero,40270 <I2C_Write+0x64>
        bSuccess = FALSE;
   4026c:	e03ffa15 	stw	zero,-24(fp)
        I2C_DEBUG(("I2C HMB_E2 Fail: Address NACK!\n"));
    }
    if (bSuccess && !i2c_write(clk_base, data_base, ControlAddr)){ // send sub-address
   40270:	e0bffa17 	ldw	r2,-24(fp)
   40274:	10000726 	beq	r2,zero,40294 <I2C_Write+0x88>
   40278:	e0bffe03 	ldbu	r2,-8(fp)
   4027c:	100d883a 	mov	r6,r2
   40280:	e17ffc17 	ldw	r5,-16(fp)
   40284:	e13ffb17 	ldw	r4,-20(fp)
   40288:	0040abc0 	call	40abc <i2c_write>
   4028c:	1000011e 	bne	r2,zero,40294 <I2C_Write+0x88>
        bSuccess = FALSE;
   40290:	e03ffa15 	stw	zero,-24(fp)
        I2C_DEBUG(("I2C HMB_E2 Fail: SubAddress NACK!\n"));
    }            
    if (bSuccess && !i2c_write(clk_base, data_base, ControlData)){  
   40294:	e0bffa17 	ldw	r2,-24(fp)
   40298:	10000726 	beq	r2,zero,402b8 <I2C_Write+0xac>
   4029c:	e0bfff03 	ldbu	r2,-4(fp)
   402a0:	100d883a 	mov	r6,r2
   402a4:	e17ffc17 	ldw	r5,-16(fp)
   402a8:	e13ffb17 	ldw	r4,-20(fp)
   402ac:	0040abc0 	call	40abc <i2c_write>
   402b0:	1000011e 	bne	r2,zero,402b8 <I2C_Write+0xac>
        bSuccess = FALSE;
   402b4:	e03ffa15 	stw	zero,-24(fp)
        I2C_DEBUG(("I2C HMB_E2 Fail: write NACK!\n"));
    }
    i2c_stop(clk_base, data_base);
   402b8:	e17ffc17 	ldw	r5,-16(fp)
   402bc:	e13ffb17 	ldw	r4,-20(fp)
   402c0:	0040a440 	call	40a44 <i2c_stop>
    
    usleep(7*1000); // delay to wait EE2 ready (at least 5 ms delay is required)
   402c4:	0106d604 	movi	r4,7000
   402c8:	0058b500 	call	58b50 <usleep>
    
    return bSuccess;
   402cc:	e0bffa17 	ldw	r2,-24(fp)

    
}
   402d0:	e037883a 	mov	sp,fp
   402d4:	dfc00117 	ldw	ra,4(sp)
   402d8:	df000017 	ldw	fp,0(sp)
   402dc:	dec00204 	addi	sp,sp,8
   402e0:	f800283a 	ret

000402e4 <I2C_Read>:

bool I2C_Read(alt_u32 clk_base, alt_u32 data_base, alt_8 DeviceAddr, alt_u8 ControlAddr, alt_u8 *pControlData){
   402e4:	defff904 	addi	sp,sp,-28
   402e8:	dfc00615 	stw	ra,24(sp)
   402ec:	df000515 	stw	fp,20(sp)
   402f0:	df000504 	addi	fp,sp,20
   402f4:	e13ffc15 	stw	r4,-16(fp)
   402f8:	e17ffd15 	stw	r5,-12(fp)
   402fc:	3007883a 	mov	r3,r6
   40300:	3805883a 	mov	r2,r7
   40304:	e0fffe05 	stb	r3,-8(fp)
   40308:	e0bfff05 	stb	r2,-4(fp)
    bool bSuccess = TRUE;
   4030c:	00800044 	movi	r2,1
   40310:	e0bffb15 	stw	r2,-20(fp)
    //alt_u8 DeviceAddr;
   
    // device id
    //DeviceAddr = HMB_E2_I2C_ID;

    i2c_start(clk_base, data_base);
   40314:	e17ffd17 	ldw	r5,-12(fp)
   40318:	e13ffc17 	ldw	r4,-16(fp)
   4031c:	00409b80 	call	409b8 <i2c_start>
    if (!i2c_write(clk_base, data_base, DeviceAddr)){  // send ID
   40320:	e0bffe03 	ldbu	r2,-8(fp)
   40324:	10803fcc 	andi	r2,r2,255
   40328:	100d883a 	mov	r6,r2
   4032c:	e17ffd17 	ldw	r5,-12(fp)
   40330:	e13ffc17 	ldw	r4,-16(fp)
   40334:	0040abc0 	call	40abc <i2c_write>
   40338:	1000011e 	bne	r2,zero,40340 <I2C_Read+0x5c>
        bSuccess = FALSE;
   4033c:	e03ffb15 	stw	zero,-20(fp)
        I2C_DEBUG(("I2C HMB_E2 Fail: Address NACK!\n"));
    }
    if (bSuccess && !i2c_write(clk_base, data_base, ControlAddr)){ // send sub-address
   40340:	e0bffb17 	ldw	r2,-20(fp)
   40344:	10000726 	beq	r2,zero,40364 <I2C_Read+0x80>
   40348:	e0bfff03 	ldbu	r2,-4(fp)
   4034c:	100d883a 	mov	r6,r2
   40350:	e17ffd17 	ldw	r5,-12(fp)
   40354:	e13ffc17 	ldw	r4,-16(fp)
   40358:	0040abc0 	call	40abc <i2c_write>
   4035c:	1000011e 	bne	r2,zero,40364 <I2C_Read+0x80>
        bSuccess = FALSE;
   40360:	e03ffb15 	stw	zero,-20(fp)
        I2C_DEBUG(("I2C HMB_E2 Fail: SubAddress NACK!\n"));
    }            
    i2c_start(clk_base, data_base);  // restart
   40364:	e17ffd17 	ldw	r5,-12(fp)
   40368:	e13ffc17 	ldw	r4,-16(fp)
   4036c:	00409b80 	call	409b8 <i2c_start>
    DeviceAddr |= 1; // Read
   40370:	e0bffe03 	ldbu	r2,-8(fp)
   40374:	10800054 	ori	r2,r2,1
   40378:	e0bffe05 	stb	r2,-8(fp)
    if (bSuccess && !i2c_write(clk_base, data_base, DeviceAddr)){  // send id
   4037c:	e0bffb17 	ldw	r2,-20(fp)
   40380:	10000826 	beq	r2,zero,403a4 <I2C_Read+0xc0>
   40384:	e0bffe03 	ldbu	r2,-8(fp)
   40388:	10803fcc 	andi	r2,r2,255
   4038c:	100d883a 	mov	r6,r2
   40390:	e17ffd17 	ldw	r5,-12(fp)
   40394:	e13ffc17 	ldw	r4,-16(fp)
   40398:	0040abc0 	call	40abc <i2c_write>
   4039c:	1000011e 	bne	r2,zero,403a4 <I2C_Read+0xc0>
        bSuccess = FALSE;
   403a0:	e03ffb15 	stw	zero,-20(fp)
        I2C_DEBUG(("I2C HMB_E2 Fail: Address+1 NACK!\n"));
    }
    
    if (bSuccess){
   403a4:	e0bffb17 	ldw	r2,-20(fp)
   403a8:	10000526 	beq	r2,zero,403c0 <I2C_Read+0xdc>
        i2c_read(clk_base, data_base, pControlData, FALSE);  // read
   403ac:	000f883a 	mov	r7,zero
   403b0:	e1800217 	ldw	r6,8(fp)
   403b4:	e17ffd17 	ldw	r5,-12(fp)
   403b8:	e13ffc17 	ldw	r4,-16(fp)
   403bc:	0040bec0 	call	40bec <i2c_read>
    }        
    i2c_stop(clk_base, data_base);
   403c0:	e17ffd17 	ldw	r5,-12(fp)
   403c4:	e13ffc17 	ldw	r4,-16(fp)
   403c8:	0040a440 	call	40a44 <i2c_stop>
    
    return bSuccess;
   403cc:	e0bffb17 	ldw	r2,-20(fp)
}
   403d0:	e037883a 	mov	sp,fp
   403d4:	dfc00117 	ldw	ra,4(sp)
   403d8:	df000017 	ldw	fp,0(sp)
   403dc:	dec00204 	addi	sp,sp,8
   403e0:	f800283a 	ret

000403e4 <I2C_MultipleRead>:

bool I2C_MultipleRead(alt_u32 clk_base, alt_u32 data_base, alt_8 DeviceAddr, alt_u8 szData[], alt_u16 len){
   403e4:	defff604 	addi	sp,sp,-40
   403e8:	dfc00915 	stw	ra,36(sp)
   403ec:	df000815 	stw	fp,32(sp)
   403f0:	df000804 	addi	fp,sp,32
   403f4:	e13ffb15 	stw	r4,-20(fp)
   403f8:	e17ffc15 	stw	r5,-16(fp)
   403fc:	3007883a 	mov	r3,r6
   40400:	e1fffe15 	stw	r7,-8(fp)
   40404:	e0800217 	ldw	r2,8(fp)
   40408:	e0fffd05 	stb	r3,-12(fp)
   4040c:	e0bfff0d 	sth	r2,-4(fp)
    int i;
    bool bSuccess = TRUE;
   40410:	00800044 	movi	r2,1
   40414:	e0bff915 	stw	r2,-28(fp)
    //alt_u8 DeviceAddr, 
    alt_u8 ControlAddr = 0;
   40418:	e03ffa05 	stb	zero,-24(fp)
    
   
    // device id
    //DeviceAddr = HMB_E2_I2C_ID;

    i2c_start(clk_base, data_base);
   4041c:	e17ffc17 	ldw	r5,-16(fp)
   40420:	e13ffb17 	ldw	r4,-20(fp)
   40424:	00409b80 	call	409b8 <i2c_start>
    if (!i2c_write(clk_base, data_base, DeviceAddr)){  // send ID
   40428:	e0bffd03 	ldbu	r2,-12(fp)
   4042c:	10803fcc 	andi	r2,r2,255
   40430:	100d883a 	mov	r6,r2
   40434:	e17ffc17 	ldw	r5,-16(fp)
   40438:	e13ffb17 	ldw	r4,-20(fp)
   4043c:	0040abc0 	call	40abc <i2c_write>
   40440:	1000011e 	bne	r2,zero,40448 <I2C_MultipleRead+0x64>
        bSuccess = FALSE;
   40444:	e03ff915 	stw	zero,-28(fp)
        I2C_DEBUG(("I2C HMB_E2 Fail: Address NACK!\n"));
    }
    if (bSuccess && !i2c_write(clk_base, data_base, ControlAddr)){ // send sub-address
   40448:	e0bff917 	ldw	r2,-28(fp)
   4044c:	10000726 	beq	r2,zero,4046c <I2C_MultipleRead+0x88>
   40450:	e0bffa03 	ldbu	r2,-24(fp)
   40454:	100d883a 	mov	r6,r2
   40458:	e17ffc17 	ldw	r5,-16(fp)
   4045c:	e13ffb17 	ldw	r4,-20(fp)
   40460:	0040abc0 	call	40abc <i2c_write>
   40464:	1000011e 	bne	r2,zero,4046c <I2C_MultipleRead+0x88>
        bSuccess = FALSE;
   40468:	e03ff915 	stw	zero,-28(fp)
        I2C_DEBUG(("I2C HMB_E2 Fail: SubAddress NACK!\n"));
    }    
    if (bSuccess)        
   4046c:	e0bff917 	ldw	r2,-28(fp)
   40470:	10000326 	beq	r2,zero,40480 <I2C_MultipleRead+0x9c>
        i2c_start(clk_base, data_base);  // restart
   40474:	e17ffc17 	ldw	r5,-16(fp)
   40478:	e13ffb17 	ldw	r4,-20(fp)
   4047c:	00409b80 	call	409b8 <i2c_start>
    DeviceAddr |= 1; // Read
   40480:	e0bffd03 	ldbu	r2,-12(fp)
   40484:	10800054 	ori	r2,r2,1
   40488:	e0bffd05 	stb	r2,-12(fp)
    if (bSuccess && !i2c_write(clk_base, data_base, DeviceAddr)){  // send id
   4048c:	e0bff917 	ldw	r2,-28(fp)
   40490:	10000826 	beq	r2,zero,404b4 <I2C_MultipleRead+0xd0>
   40494:	e0bffd03 	ldbu	r2,-12(fp)
   40498:	10803fcc 	andi	r2,r2,255
   4049c:	100d883a 	mov	r6,r2
   404a0:	e17ffc17 	ldw	r5,-16(fp)
   404a4:	e13ffb17 	ldw	r4,-20(fp)
   404a8:	0040abc0 	call	40abc <i2c_write>
   404ac:	1000011e 	bne	r2,zero,404b4 <I2C_MultipleRead+0xd0>
        bSuccess = FALSE;
   404b0:	e03ff915 	stw	zero,-28(fp)
        I2C_DEBUG(("I2C HMB_E2 Fail: Address+1 NACK!\n"));
    }
    
    if (bSuccess){
   404b4:	e0bff917 	ldw	r2,-28(fp)
   404b8:	10001726 	beq	r2,zero,40518 <I2C_MultipleRead+0x134>
        for(i=0;i<len && bSuccess;i++){
   404bc:	e03ff815 	stw	zero,-32(fp)
   404c0:	00001006 	br	40504 <I2C_MultipleRead+0x120>
            i2c_read(clk_base, data_base, &szData[i], (i==(len-1))?FALSE:TRUE);  // read
   404c4:	e0bff817 	ldw	r2,-32(fp)
   404c8:	e0fffe17 	ldw	r3,-8(fp)
   404cc:	1889883a 	add	r4,r3,r2
   404d0:	e0bfff0b 	ldhu	r2,-4(fp)
   404d4:	10ffffc4 	addi	r3,r2,-1
   404d8:	e0bff817 	ldw	r2,-32(fp)
   404dc:	1884c03a 	cmpne	r2,r3,r2
   404e0:	10803fcc 	andi	r2,r2,255
   404e4:	100f883a 	mov	r7,r2
   404e8:	200d883a 	mov	r6,r4
   404ec:	e17ffc17 	ldw	r5,-16(fp)
   404f0:	e13ffb17 	ldw	r4,-20(fp)
   404f4:	0040bec0 	call	40bec <i2c_read>
        bSuccess = FALSE;
        I2C_DEBUG(("I2C HMB_E2 Fail: Address+1 NACK!\n"));
    }
    
    if (bSuccess){
        for(i=0;i<len && bSuccess;i++){
   404f8:	e0bff817 	ldw	r2,-32(fp)
   404fc:	10800044 	addi	r2,r2,1
   40500:	e0bff815 	stw	r2,-32(fp)
   40504:	e0bfff0b 	ldhu	r2,-4(fp)
   40508:	e0fff817 	ldw	r3,-32(fp)
   4050c:	1880020e 	bge	r3,r2,40518 <I2C_MultipleRead+0x134>
   40510:	e0bff917 	ldw	r2,-28(fp)
   40514:	103feb1e 	bne	r2,zero,404c4 <__alt_data_end+0xfffc1cc4>
            i2c_read(clk_base, data_base, &szData[i], (i==(len-1))?FALSE:TRUE);  // read
        }            
    }        
    i2c_stop(clk_base, data_base);
   40518:	e17ffc17 	ldw	r5,-16(fp)
   4051c:	e13ffb17 	ldw	r4,-20(fp)
   40520:	0040a440 	call	40a44 <i2c_stop>
    
    return bSuccess;    
   40524:	e0bff917 	ldw	r2,-28(fp)
    
}
   40528:	e037883a 	mov	sp,fp
   4052c:	dfc00117 	ldw	ra,4(sp)
   40530:	df000017 	ldw	fp,0(sp)
   40534:	dec00204 	addi	sp,sp,8
   40538:	f800283a 	ret

0004053c <I2C_Receive>:

bool I2C_Receive(alt_u32 clk_base, alt_u32 data_base, alt_8 DeviceAddr, alt_u8 *pControlData){
   4053c:	defff904 	addi	sp,sp,-28
   40540:	dfc00615 	stw	ra,24(sp)
   40544:	df000515 	stw	fp,20(sp)
   40548:	df000504 	addi	fp,sp,20
   4054c:	e13ffc15 	stw	r4,-16(fp)
   40550:	e17ffd15 	stw	r5,-12(fp)
   40554:	3005883a 	mov	r2,r6
   40558:	e1ffff15 	stw	r7,-4(fp)
   4055c:	e0bffe05 	stb	r2,-8(fp)
    bool bSuccess = TRUE;
   40560:	00800044 	movi	r2,1
   40564:	e0bffb15 	stw	r2,-20(fp)
    
    i2c_start(clk_base, data_base);  // start
   40568:	e17ffd17 	ldw	r5,-12(fp)
   4056c:	e13ffc17 	ldw	r4,-16(fp)
   40570:	00409b80 	call	409b8 <i2c_start>
    
    DeviceAddr |= 1; // Read
   40574:	e0bffe03 	ldbu	r2,-8(fp)
   40578:	10800054 	ori	r2,r2,1
   4057c:	e0bffe05 	stb	r2,-8(fp)
    if (bSuccess && !i2c_write(clk_base, data_base, DeviceAddr)){  // send id
   40580:	e0bffb17 	ldw	r2,-20(fp)
   40584:	10000826 	beq	r2,zero,405a8 <I2C_Receive+0x6c>
   40588:	e0bffe03 	ldbu	r2,-8(fp)
   4058c:	10803fcc 	andi	r2,r2,255
   40590:	100d883a 	mov	r6,r2
   40594:	e17ffd17 	ldw	r5,-12(fp)
   40598:	e13ffc17 	ldw	r4,-16(fp)
   4059c:	0040abc0 	call	40abc <i2c_write>
   405a0:	1000011e 	bne	r2,zero,405a8 <I2C_Receive+0x6c>
        bSuccess = FALSE;
   405a4:	e03ffb15 	stw	zero,-20(fp)
        I2C_DEBUG(("I2C HMB_E2 Fail: Address+1 NACK!\n"));
    }
    
    if (bSuccess){
   405a8:	e0bffb17 	ldw	r2,-20(fp)
   405ac:	10000526 	beq	r2,zero,405c4 <I2C_Receive+0x88>
        i2c_read(clk_base, data_base, pControlData, FALSE);  // read
   405b0:	000f883a 	mov	r7,zero
   405b4:	e1bfff17 	ldw	r6,-4(fp)
   405b8:	e17ffd17 	ldw	r5,-12(fp)
   405bc:	e13ffc17 	ldw	r4,-16(fp)
   405c0:	0040bec0 	call	40bec <i2c_read>
    }        
    i2c_stop(clk_base, data_base);
   405c4:	e17ffd17 	ldw	r5,-12(fp)
   405c8:	e13ffc17 	ldw	r4,-16(fp)
   405cc:	0040a440 	call	40a44 <i2c_stop>
    
    return bSuccess;
   405d0:	e0bffb17 	ldw	r2,-20(fp)
}
   405d4:	e037883a 	mov	sp,fp
   405d8:	dfc00117 	ldw	ra,4(sp)
   405dc:	df000017 	ldw	fp,0(sp)
   405e0:	dec00204 	addi	sp,sp,8
   405e4:	f800283a 	ret

000405e8 <I2CL_Write>:

////////////////////////////////////////////////////////////////
////////////////////////////////////////////////////////////////
////////////////////////////////////////////////////////////////
// size > 2Kbits
bool I2CL_Write(alt_u32 clk_base, alt_u32 data_base, alt_8 DeviceAddr, alt_u16 ControlAddr, alt_u8 ControlData){
   405e8:	defff704 	addi	sp,sp,-36
   405ec:	dfc00815 	stw	ra,32(sp)
   405f0:	df000715 	stw	fp,28(sp)
   405f4:	df000704 	addi	fp,sp,28
   405f8:	e13ffb15 	stw	r4,-20(fp)
   405fc:	e17ffc15 	stw	r5,-16(fp)
   40600:	3009883a 	mov	r4,r6
   40604:	3807883a 	mov	r3,r7
   40608:	e0800217 	ldw	r2,8(fp)
   4060c:	e13ffd05 	stb	r4,-12(fp)
   40610:	e0fffe0d 	sth	r3,-8(fp)
   40614:	e0bfff05 	stb	r2,-4(fp)
    bool bSuccess = TRUE;
   40618:	00800044 	movi	r2,1
   4061c:	e0bff915 	stw	r2,-28(fp)
    alt_u8 AddrHigh, AddrLow;
    
    AddrHigh = (ControlAddr >> 8) & 0xFF; 
   40620:	e0bffe0b 	ldhu	r2,-8(fp)
   40624:	1004d23a 	srli	r2,r2,8
   40628:	e0bffa05 	stb	r2,-24(fp)
    AddrLow  = ControlAddr & 0xFF; 
   4062c:	e0bffe0b 	ldhu	r2,-8(fp)
   40630:	e0bffa45 	stb	r2,-23(fp)
    
    // device id
    //DeviceAddr = HMB_E2_I2C_ID;

    i2c_start(clk_base, data_base);
   40634:	e17ffc17 	ldw	r5,-16(fp)
   40638:	e13ffb17 	ldw	r4,-20(fp)
   4063c:	00409b80 	call	409b8 <i2c_start>
    if (!i2c_write(clk_base, data_base, DeviceAddr)){  // send ID
   40640:	e0bffd03 	ldbu	r2,-12(fp)
   40644:	10803fcc 	andi	r2,r2,255
   40648:	100d883a 	mov	r6,r2
   4064c:	e17ffc17 	ldw	r5,-16(fp)
   40650:	e13ffb17 	ldw	r4,-20(fp)
   40654:	0040abc0 	call	40abc <i2c_write>
   40658:	1000011e 	bne	r2,zero,40660 <I2CL_Write+0x78>
        bSuccess = FALSE;
   4065c:	e03ff915 	stw	zero,-28(fp)
        I2C_DEBUG(("I2C HMB_E2 Fail: Address NACK!\n"));
    }
    if (bSuccess && !i2c_write(clk_base, data_base, AddrHigh)){ // send sub-address
   40660:	e0bff917 	ldw	r2,-28(fp)
   40664:	10000726 	beq	r2,zero,40684 <I2CL_Write+0x9c>
   40668:	e0bffa03 	ldbu	r2,-24(fp)
   4066c:	100d883a 	mov	r6,r2
   40670:	e17ffc17 	ldw	r5,-16(fp)
   40674:	e13ffb17 	ldw	r4,-20(fp)
   40678:	0040abc0 	call	40abc <i2c_write>
   4067c:	1000011e 	bne	r2,zero,40684 <I2CL_Write+0x9c>
        bSuccess = FALSE;
   40680:	e03ff915 	stw	zero,-28(fp)
        I2C_DEBUG(("I2C HMB_E2 Fail: SubAddress-high NACK!\n"));
    }            
    if (bSuccess && !i2c_write(clk_base, data_base, AddrLow)){ // send sub-address
   40684:	e0bff917 	ldw	r2,-28(fp)
   40688:	10000726 	beq	r2,zero,406a8 <I2CL_Write+0xc0>
   4068c:	e0bffa43 	ldbu	r2,-23(fp)
   40690:	100d883a 	mov	r6,r2
   40694:	e17ffc17 	ldw	r5,-16(fp)
   40698:	e13ffb17 	ldw	r4,-20(fp)
   4069c:	0040abc0 	call	40abc <i2c_write>
   406a0:	1000011e 	bne	r2,zero,406a8 <I2CL_Write+0xc0>
        bSuccess = FALSE;
   406a4:	e03ff915 	stw	zero,-28(fp)
        I2C_DEBUG(("I2C HMB_E2 Fail: SubAddress-low NACK!\n"));
    }            
    if (bSuccess && !i2c_write(clk_base, data_base, ControlData)){  
   406a8:	e0bff917 	ldw	r2,-28(fp)
   406ac:	10000726 	beq	r2,zero,406cc <I2CL_Write+0xe4>
   406b0:	e0bfff03 	ldbu	r2,-4(fp)
   406b4:	100d883a 	mov	r6,r2
   406b8:	e17ffc17 	ldw	r5,-16(fp)
   406bc:	e13ffb17 	ldw	r4,-20(fp)
   406c0:	0040abc0 	call	40abc <i2c_write>
   406c4:	1000011e 	bne	r2,zero,406cc <I2CL_Write+0xe4>
        bSuccess = FALSE;
   406c8:	e03ff915 	stw	zero,-28(fp)
        I2C_DEBUG(("I2C HMB_E2 Fail: write NACK!\n"));
    }
    i2c_stop(clk_base, data_base);
   406cc:	e17ffc17 	ldw	r5,-16(fp)
   406d0:	e13ffb17 	ldw	r4,-20(fp)
   406d4:	0040a440 	call	40a44 <i2c_stop>
    
    usleep(7*1000); // delay to wait EE2 ready (at least 5 ms delay is required)
   406d8:	0106d604 	movi	r4,7000
   406dc:	0058b500 	call	58b50 <usleep>
    
    return bSuccess;
   406e0:	e0bff917 	ldw	r2,-28(fp)
    
}
   406e4:	e037883a 	mov	sp,fp
   406e8:	dfc00117 	ldw	ra,4(sp)
   406ec:	df000017 	ldw	fp,0(sp)
   406f0:	dec00204 	addi	sp,sp,8
   406f4:	f800283a 	ret

000406f8 <I2CL_Read>:

bool I2CL_Read(alt_u32 clk_base, alt_u32 data_base, alt_8 DeviceAddr, alt_u16 ControlAddr, alt_u8 *pControlData){
   406f8:	defff804 	addi	sp,sp,-32
   406fc:	dfc00715 	stw	ra,28(sp)
   40700:	df000615 	stw	fp,24(sp)
   40704:	df000604 	addi	fp,sp,24
   40708:	e13ffc15 	stw	r4,-16(fp)
   4070c:	e17ffd15 	stw	r5,-12(fp)
   40710:	3007883a 	mov	r3,r6
   40714:	3805883a 	mov	r2,r7
   40718:	e0fffe05 	stb	r3,-8(fp)
   4071c:	e0bfff0d 	sth	r2,-4(fp)
    bool bSuccess = TRUE;
   40720:	00800044 	movi	r2,1
   40724:	e0bffa15 	stw	r2,-24(fp)
    alt_u8 AddrHigh, AddrLow;
    
    AddrHigh = (ControlAddr >> 8) & 0xFF; 
   40728:	e0bfff0b 	ldhu	r2,-4(fp)
   4072c:	1004d23a 	srli	r2,r2,8
   40730:	e0bffb05 	stb	r2,-20(fp)
    AddrLow  = ControlAddr & 0xFF; 
   40734:	e0bfff0b 	ldhu	r2,-4(fp)
   40738:	e0bffb45 	stb	r2,-19(fp)

    i2c_start(clk_base, data_base);
   4073c:	e17ffd17 	ldw	r5,-12(fp)
   40740:	e13ffc17 	ldw	r4,-16(fp)
   40744:	00409b80 	call	409b8 <i2c_start>
    if (!i2c_write(clk_base, data_base, DeviceAddr)){  // send ID
   40748:	e0bffe03 	ldbu	r2,-8(fp)
   4074c:	10803fcc 	andi	r2,r2,255
   40750:	100d883a 	mov	r6,r2
   40754:	e17ffd17 	ldw	r5,-12(fp)
   40758:	e13ffc17 	ldw	r4,-16(fp)
   4075c:	0040abc0 	call	40abc <i2c_write>
   40760:	1000011e 	bne	r2,zero,40768 <I2CL_Read+0x70>
        bSuccess = FALSE;
   40764:	e03ffa15 	stw	zero,-24(fp)
        I2C_DEBUG(("I2C HMB_E2 Fail: Address NACK!\n"));
    }
    if (bSuccess && !i2c_write(clk_base, data_base, AddrHigh)){ // send sub-address
   40768:	e0bffa17 	ldw	r2,-24(fp)
   4076c:	10000726 	beq	r2,zero,4078c <I2CL_Read+0x94>
   40770:	e0bffb03 	ldbu	r2,-20(fp)
   40774:	100d883a 	mov	r6,r2
   40778:	e17ffd17 	ldw	r5,-12(fp)
   4077c:	e13ffc17 	ldw	r4,-16(fp)
   40780:	0040abc0 	call	40abc <i2c_write>
   40784:	1000011e 	bne	r2,zero,4078c <I2CL_Read+0x94>
        bSuccess = FALSE;
   40788:	e03ffa15 	stw	zero,-24(fp)
        I2C_DEBUG(("I2C HMB_E2 Fail: SubAddress-high NACK!\n"));
    }            
    if (bSuccess && !i2c_write(clk_base, data_base, AddrLow)){ // send sub-address
   4078c:	e0bffa17 	ldw	r2,-24(fp)
   40790:	10000726 	beq	r2,zero,407b0 <I2CL_Read+0xb8>
   40794:	e0bffb43 	ldbu	r2,-19(fp)
   40798:	100d883a 	mov	r6,r2
   4079c:	e17ffd17 	ldw	r5,-12(fp)
   407a0:	e13ffc17 	ldw	r4,-16(fp)
   407a4:	0040abc0 	call	40abc <i2c_write>
   407a8:	1000011e 	bne	r2,zero,407b0 <I2CL_Read+0xb8>
        bSuccess = FALSE;
   407ac:	e03ffa15 	stw	zero,-24(fp)
        I2C_DEBUG(("I2C HMB_E2 Fail: SubAddress-low NACK!\n"));
    }            
    i2c_start(clk_base, data_base);  // restart
   407b0:	e17ffd17 	ldw	r5,-12(fp)
   407b4:	e13ffc17 	ldw	r4,-16(fp)
   407b8:	00409b80 	call	409b8 <i2c_start>
    DeviceAddr |= 1; // Read
   407bc:	e0bffe03 	ldbu	r2,-8(fp)
   407c0:	10800054 	ori	r2,r2,1
   407c4:	e0bffe05 	stb	r2,-8(fp)
    if (bSuccess && !i2c_write(clk_base, data_base, DeviceAddr)){  // send id
   407c8:	e0bffa17 	ldw	r2,-24(fp)
   407cc:	10000826 	beq	r2,zero,407f0 <I2CL_Read+0xf8>
   407d0:	e0bffe03 	ldbu	r2,-8(fp)
   407d4:	10803fcc 	andi	r2,r2,255
   407d8:	100d883a 	mov	r6,r2
   407dc:	e17ffd17 	ldw	r5,-12(fp)
   407e0:	e13ffc17 	ldw	r4,-16(fp)
   407e4:	0040abc0 	call	40abc <i2c_write>
   407e8:	1000011e 	bne	r2,zero,407f0 <I2CL_Read+0xf8>
        bSuccess = FALSE;
   407ec:	e03ffa15 	stw	zero,-24(fp)
        I2C_DEBUG(("I2C HMB_E2 Fail: Address+1 NACK!\n"));
    }
    
    if (bSuccess){
   407f0:	e0bffa17 	ldw	r2,-24(fp)
   407f4:	10000526 	beq	r2,zero,4080c <I2CL_Read+0x114>
        i2c_read(clk_base, data_base, pControlData, FALSE);  // read
   407f8:	000f883a 	mov	r7,zero
   407fc:	e1800217 	ldw	r6,8(fp)
   40800:	e17ffd17 	ldw	r5,-12(fp)
   40804:	e13ffc17 	ldw	r4,-16(fp)
   40808:	0040bec0 	call	40bec <i2c_read>
    }        
    i2c_stop(clk_base, data_base);
   4080c:	e17ffd17 	ldw	r5,-12(fp)
   40810:	e13ffc17 	ldw	r4,-16(fp)
   40814:	0040a440 	call	40a44 <i2c_stop>
    
    return bSuccess;    
   40818:	e0bffa17 	ldw	r2,-24(fp)
}
   4081c:	e037883a 	mov	sp,fp
   40820:	dfc00117 	ldw	ra,4(sp)
   40824:	df000017 	ldw	fp,0(sp)
   40828:	dec00204 	addi	sp,sp,8
   4082c:	f800283a 	ret

00040830 <I2CL_MultipleRead>:

// read from address 0
bool I2CL_MultipleRead(alt_u32 clk_base, alt_u32 data_base, alt_8 DeviceAddr, alt_u8 szData[], alt_u16 len){
   40830:	defff604 	addi	sp,sp,-40
   40834:	dfc00915 	stw	ra,36(sp)
   40838:	df000815 	stw	fp,32(sp)
   4083c:	df000804 	addi	fp,sp,32
   40840:	e13ffb15 	stw	r4,-20(fp)
   40844:	e17ffc15 	stw	r5,-16(fp)
   40848:	3007883a 	mov	r3,r6
   4084c:	e1fffe15 	stw	r7,-8(fp)
   40850:	e0800217 	ldw	r2,8(fp)
   40854:	e0fffd05 	stb	r3,-12(fp)
   40858:	e0bfff0d 	sth	r2,-4(fp)
    int i;
    bool bSuccess = TRUE;
   4085c:	00800044 	movi	r2,1
   40860:	e0bff915 	stw	r2,-28(fp)
    alt_u8 ControlAddr = 0;
   40864:	e03ffa05 	stb	zero,-24(fp)
    alt_u8 AddrHigh, AddrLow;
    
    AddrHigh = (ControlAddr >> 8) & 0xFF; 
   40868:	e03ffa45 	stb	zero,-23(fp)
    AddrLow  = ControlAddr & 0xFF;     
   4086c:	e0bffa03 	ldbu	r2,-24(fp)
   40870:	e0bffa85 	stb	r2,-22(fp)
    
   
    // device id
    //DeviceAddr = HMB_E2_I2C_ID;

    i2c_start(clk_base, data_base);
   40874:	e17ffc17 	ldw	r5,-16(fp)
   40878:	e13ffb17 	ldw	r4,-20(fp)
   4087c:	00409b80 	call	409b8 <i2c_start>
    if (!i2c_write(clk_base, data_base, DeviceAddr)){  // send ID
   40880:	e0bffd03 	ldbu	r2,-12(fp)
   40884:	10803fcc 	andi	r2,r2,255
   40888:	100d883a 	mov	r6,r2
   4088c:	e17ffc17 	ldw	r5,-16(fp)
   40890:	e13ffb17 	ldw	r4,-20(fp)
   40894:	0040abc0 	call	40abc <i2c_write>
   40898:	1000011e 	bne	r2,zero,408a0 <I2CL_MultipleRead+0x70>
        bSuccess = FALSE;
   4089c:	e03ff915 	stw	zero,-28(fp)
        I2C_DEBUG(("I2C HMB_E2 Fail: Address NACK!\n"));
    }
    if (bSuccess && !i2c_write(clk_base, data_base, AddrHigh)){ // send sub-address
   408a0:	e0bff917 	ldw	r2,-28(fp)
   408a4:	10000726 	beq	r2,zero,408c4 <I2CL_MultipleRead+0x94>
   408a8:	e0bffa43 	ldbu	r2,-23(fp)
   408ac:	100d883a 	mov	r6,r2
   408b0:	e17ffc17 	ldw	r5,-16(fp)
   408b4:	e13ffb17 	ldw	r4,-20(fp)
   408b8:	0040abc0 	call	40abc <i2c_write>
   408bc:	1000011e 	bne	r2,zero,408c4 <I2CL_MultipleRead+0x94>
        bSuccess = FALSE;
   408c0:	e03ff915 	stw	zero,-28(fp)
        I2C_DEBUG(("I2C HMB_E2 Fail: SubAddress-high NACK!\n"));
    }    
    if (bSuccess && !i2c_write(clk_base, data_base, AddrLow)){ // send sub-address
   408c4:	e0bff917 	ldw	r2,-28(fp)
   408c8:	10000726 	beq	r2,zero,408e8 <I2CL_MultipleRead+0xb8>
   408cc:	e0bffa83 	ldbu	r2,-22(fp)
   408d0:	100d883a 	mov	r6,r2
   408d4:	e17ffc17 	ldw	r5,-16(fp)
   408d8:	e13ffb17 	ldw	r4,-20(fp)
   408dc:	0040abc0 	call	40abc <i2c_write>
   408e0:	1000011e 	bne	r2,zero,408e8 <I2CL_MultipleRead+0xb8>
        bSuccess = FALSE;
   408e4:	e03ff915 	stw	zero,-28(fp)
        I2C_DEBUG(("I2C HMB_E2 Fail: SubAddress-low NACK!\n"));
    }    
    if (bSuccess)        
   408e8:	e0bff917 	ldw	r2,-28(fp)
   408ec:	10000326 	beq	r2,zero,408fc <I2CL_MultipleRead+0xcc>
        i2c_start(clk_base, data_base);  // restart
   408f0:	e17ffc17 	ldw	r5,-16(fp)
   408f4:	e13ffb17 	ldw	r4,-20(fp)
   408f8:	00409b80 	call	409b8 <i2c_start>
    DeviceAddr |= 1; // Read
   408fc:	e0bffd03 	ldbu	r2,-12(fp)
   40900:	10800054 	ori	r2,r2,1
   40904:	e0bffd05 	stb	r2,-12(fp)
    if (bSuccess && !i2c_write(clk_base, data_base, DeviceAddr)){  // send id
   40908:	e0bff917 	ldw	r2,-28(fp)
   4090c:	10000826 	beq	r2,zero,40930 <I2CL_MultipleRead+0x100>
   40910:	e0bffd03 	ldbu	r2,-12(fp)
   40914:	10803fcc 	andi	r2,r2,255
   40918:	100d883a 	mov	r6,r2
   4091c:	e17ffc17 	ldw	r5,-16(fp)
   40920:	e13ffb17 	ldw	r4,-20(fp)
   40924:	0040abc0 	call	40abc <i2c_write>
   40928:	1000011e 	bne	r2,zero,40930 <I2CL_MultipleRead+0x100>
        bSuccess = FALSE;
   4092c:	e03ff915 	stw	zero,-28(fp)
        I2C_DEBUG(("I2C HMB_E2 Fail: Address+1 NACK!\n"));
    }
    
    if (bSuccess){
   40930:	e0bff917 	ldw	r2,-28(fp)
   40934:	10001726 	beq	r2,zero,40994 <I2CL_MultipleRead+0x164>
        for(i=0;i<len && bSuccess;i++){
   40938:	e03ff815 	stw	zero,-32(fp)
   4093c:	00001006 	br	40980 <I2CL_MultipleRead+0x150>
            i2c_read(clk_base, data_base, &szData[i], (i==(len-1))?FALSE:TRUE);  // read
   40940:	e0bff817 	ldw	r2,-32(fp)
   40944:	e0fffe17 	ldw	r3,-8(fp)
   40948:	1889883a 	add	r4,r3,r2
   4094c:	e0bfff0b 	ldhu	r2,-4(fp)
   40950:	10ffffc4 	addi	r3,r2,-1
   40954:	e0bff817 	ldw	r2,-32(fp)
   40958:	1884c03a 	cmpne	r2,r3,r2
   4095c:	10803fcc 	andi	r2,r2,255
   40960:	100f883a 	mov	r7,r2
   40964:	200d883a 	mov	r6,r4
   40968:	e17ffc17 	ldw	r5,-16(fp)
   4096c:	e13ffb17 	ldw	r4,-20(fp)
   40970:	0040bec0 	call	40bec <i2c_read>
        bSuccess = FALSE;
        I2C_DEBUG(("I2C HMB_E2 Fail: Address+1 NACK!\n"));
    }
    
    if (bSuccess){
        for(i=0;i<len && bSuccess;i++){
   40974:	e0bff817 	ldw	r2,-32(fp)
   40978:	10800044 	addi	r2,r2,1
   4097c:	e0bff815 	stw	r2,-32(fp)
   40980:	e0bfff0b 	ldhu	r2,-4(fp)
   40984:	e0fff817 	ldw	r3,-32(fp)
   40988:	1880020e 	bge	r3,r2,40994 <I2CL_MultipleRead+0x164>
   4098c:	e0bff917 	ldw	r2,-28(fp)
   40990:	103feb1e 	bne	r2,zero,40940 <__alt_data_end+0xfffc2140>
            i2c_read(clk_base, data_base, &szData[i], (i==(len-1))?FALSE:TRUE);  // read
        }            
    }        
    i2c_stop(clk_base, data_base);
   40994:	e17ffc17 	ldw	r5,-16(fp)
   40998:	e13ffb17 	ldw	r4,-20(fp)
   4099c:	0040a440 	call	40a44 <i2c_stop>
    
    return bSuccess;    
   409a0:	e0bff917 	ldw	r2,-28(fp)
    
} 
   409a4:	e037883a 	mov	sp,fp
   409a8:	dfc00117 	ldw	ra,4(sp)
   409ac:	df000017 	ldw	fp,0(sp)
   409b0:	dec00204 	addi	sp,sp,8
   409b4:	f800283a 	ret

000409b8 <i2c_start>:
///////////// Interncal function (i2cXXX) body //////////////////////////////////////////////
/////////////////////////////////////////////////////////////////////////////////////////////


//SDA 1->0 while SCL=1
void i2c_start(alt_u32 clk_base, alt_u32 data_base){
   409b8:	defffc04 	addi	sp,sp,-16
   409bc:	dfc00315 	stw	ra,12(sp)
   409c0:	df000215 	stw	fp,8(sp)
   409c4:	df000204 	addi	fp,sp,8
   409c8:	e13ffe15 	stw	r4,-8(fp)
   409cc:	e17fff15 	stw	r5,-4(fp)
    
    // make sure it is in normal state
    SDA_DIR_OUT(data_base);  // data output enabled
   409d0:	e0bfff17 	ldw	r2,-4(fp)
   409d4:	10800104 	addi	r2,r2,4
   409d8:	1007883a 	mov	r3,r2
   409dc:	00800044 	movi	r2,1
   409e0:	18800035 	stwio	r2,0(r3)
    
    
    
    // start condition
    SDA_HIGH(data_base); // data high
   409e4:	e0bfff17 	ldw	r2,-4(fp)
   409e8:	00c00044 	movi	r3,1
   409ec:	10c00035 	stwio	r3,0(r2)
    SCL_HIGH(clk_base);
   409f0:	e0bffe17 	ldw	r2,-8(fp)
   409f4:	00c00044 	movi	r3,1
   409f8:	10c00035 	stwio	r3,0(r2)
    SCL_DELAY;
   409fc:	01000044 	movi	r4,1
   40a00:	0058b500 	call	58b50 <usleep>
     
    SDA_LOW(data_base); // data low
   40a04:	e0bfff17 	ldw	r2,-4(fp)
   40a08:	0007883a 	mov	r3,zero
   40a0c:	10c00035 	stwio	r3,0(r2)
    SCL_DELAY; 
   40a10:	01000044 	movi	r4,1
   40a14:	0058b500 	call	58b50 <usleep>
    SCL_LOW(clk_base); // clock low
   40a18:	e0bffe17 	ldw	r2,-8(fp)
   40a1c:	0007883a 	mov	r3,zero
   40a20:	10c00035 	stwio	r3,0(r2)
    SCL_DELAY;
   40a24:	01000044 	movi	r4,1
   40a28:	0058b500 	call	58b50 <usleep>
}
   40a2c:	0001883a 	nop
   40a30:	e037883a 	mov	sp,fp
   40a34:	dfc00117 	ldw	ra,4(sp)
   40a38:	df000017 	ldw	fp,0(sp)
   40a3c:	dec00204 	addi	sp,sp,8
   40a40:	f800283a 	ret

00040a44 <i2c_stop>:

// SDA 0->1 while SCL=1
void i2c_stop(alt_u32 clk_base, alt_u32 data_base){
   40a44:	defffc04 	addi	sp,sp,-16
   40a48:	dfc00315 	stw	ra,12(sp)
   40a4c:	df000215 	stw	fp,8(sp)
   40a50:	df000204 	addi	fp,sp,8
   40a54:	e13ffe15 	stw	r4,-8(fp)
   40a58:	e17fff15 	stw	r5,-4(fp)
    // assume SCL = 0
    
    SDA_DIR_OUT(data_base);  // data output enabled
   40a5c:	e0bfff17 	ldw	r2,-4(fp)
   40a60:	10800104 	addi	r2,r2,4
   40a64:	1007883a 	mov	r3,r2
   40a68:	00800044 	movi	r2,1
   40a6c:	18800035 	stwio	r2,0(r3)
    SDA_LOW(data_base); // Data Low
   40a70:	e0bfff17 	ldw	r2,-4(fp)
   40a74:	0007883a 	mov	r3,zero
   40a78:	10c00035 	stwio	r3,0(r2)
    //SCL_DELAY; 
    SCL_HIGH(clk_base);  // clock high
   40a7c:	e0bffe17 	ldw	r2,-8(fp)
   40a80:	00c00044 	movi	r3,1
   40a84:	10c00035 	stwio	r3,0(r2)
    SCL_DELAY; // clock high long delay
   40a88:	01000044 	movi	r4,1
   40a8c:	0058b500 	call	58b50 <usleep>
    SDA_HIGH(data_base); // data high
   40a90:	e0bfff17 	ldw	r2,-4(fp)
   40a94:	00c00044 	movi	r3,1
   40a98:	10c00035 	stwio	r3,0(r2)
    SCL_DELAY; // data high delay
   40a9c:	01000044 	movi	r4,1
   40aa0:	0058b500 	call	58b50 <usleep>
    

    
}
   40aa4:	0001883a 	nop
   40aa8:	e037883a 	mov	sp,fp
   40aac:	dfc00117 	ldw	ra,4(sp)
   40ab0:	df000017 	ldw	fp,0(sp)
   40ab4:	dec00204 	addi	sp,sp,8
   40ab8:	f800283a 	ret

00040abc <i2c_write>:

bool i2c_write(alt_u32 clk_base, alt_u32 data_base, alt_u8 Data){ // return true if device response ack
   40abc:	defff804 	addi	sp,sp,-32
   40ac0:	dfc00715 	stw	ra,28(sp)
   40ac4:	df000615 	stw	fp,24(sp)
   40ac8:	df000604 	addi	fp,sp,24
   40acc:	e13ffd15 	stw	r4,-12(fp)
   40ad0:	e17ffe15 	stw	r5,-8(fp)
   40ad4:	3005883a 	mov	r2,r6
   40ad8:	e0bfff05 	stb	r2,-4(fp)
    alt_u8 Mask = 0x80;
   40adc:	00bfe004 	movi	r2,-128
   40ae0:	e0bffa05 	stb	r2,-24(fp)
    bool bAck;
    int i;
    
    // assume, SCL = 0
    
    SDA_DIR_OUT(data_base);  // data write mode
   40ae4:	e0bffe17 	ldw	r2,-8(fp)
   40ae8:	10800104 	addi	r2,r2,4
   40aec:	1007883a 	mov	r3,r2
   40af0:	00800044 	movi	r2,1
   40af4:	18800035 	stwio	r2,0(r3)
    
    for(i=0;i<8;i++){
   40af8:	e03ffb15 	stw	zero,-20(fp)
   40afc:	00001f06 	br	40b7c <i2c_write+0xc0>
        SCL_LOW(clk_base);  // new, make sure data change at clk low
   40b00:	e0bffd17 	ldw	r2,-12(fp)
   40b04:	0007883a 	mov	r3,zero
   40b08:	10c00035 	stwio	r3,0(r2)
        // output data on bus
        if (Data & Mask){ // there is a delay in this command
   40b0c:	e0ffff03 	ldbu	r3,-4(fp)
   40b10:	e0bffa03 	ldbu	r2,-24(fp)
   40b14:	1884703a 	and	r2,r3,r2
   40b18:	10803fcc 	andi	r2,r2,255
   40b1c:	10000426 	beq	r2,zero,40b30 <i2c_write+0x74>
            SDA_HIGH(data_base);
   40b20:	e0bffe17 	ldw	r2,-8(fp)
   40b24:	00c00044 	movi	r3,1
   40b28:	10c00035 	stwio	r3,0(r2)
   40b2c:	00000306 	br	40b3c <i2c_write+0x80>
        }else{    
            SDA_LOW(data_base);
   40b30:	e0bffe17 	ldw	r2,-8(fp)
   40b34:	0007883a 	mov	r3,zero
   40b38:	10c00035 	stwio	r3,0(r2)
        }
        Mask >>= 1; // there is a delay in this command
   40b3c:	e0bffa03 	ldbu	r2,-24(fp)
   40b40:	1004d07a 	srli	r2,r2,1
   40b44:	e0bffa05 	stb	r2,-24(fp)
        // clock high
        SCL_HIGH(clk_base);
   40b48:	e0bffd17 	ldw	r2,-12(fp)
   40b4c:	00c00044 	movi	r3,1
   40b50:	10c00035 	stwio	r3,0(r2)
        SCL_DELAY;
   40b54:	01000044 	movi	r4,1
   40b58:	0058b500 	call	58b50 <usleep>
        SCL_LOW(clk_base);
   40b5c:	e0bffd17 	ldw	r2,-12(fp)
   40b60:	0007883a 	mov	r3,zero
   40b64:	10c00035 	stwio	r3,0(r2)
        SCL_DELAY;
   40b68:	01000044 	movi	r4,1
   40b6c:	0058b500 	call	58b50 <usleep>
    
    // assume, SCL = 0
    
    SDA_DIR_OUT(data_base);  // data write mode
    
    for(i=0;i<8;i++){
   40b70:	e0bffb17 	ldw	r2,-20(fp)
   40b74:	10800044 	addi	r2,r2,1
   40b78:	e0bffb15 	stw	r2,-20(fp)
   40b7c:	e0bffb17 	ldw	r2,-20(fp)
   40b80:	10800210 	cmplti	r2,r2,8
   40b84:	103fde1e 	bne	r2,zero,40b00 <__alt_data_end+0xfffc2300>
        SCL_LOW(clk_base);
        SCL_DELAY;
    }
    
    //===== get ack
    SDA_DIR_IN(data_base);  // data read mode
   40b88:	e0bffe17 	ldw	r2,-8(fp)
   40b8c:	10800104 	addi	r2,r2,4
   40b90:	0007883a 	mov	r3,zero
   40b94:	10c00035 	stwio	r3,0(r2)
    //SCL_DELAY;
    // clock high
    SCL_HIGH(clk_base);  // clock high
   40b98:	e0bffd17 	ldw	r2,-12(fp)
   40b9c:	00c00044 	movi	r3,1
   40ba0:	10c00035 	stwio	r3,0(r2)
    SCL_DELAY;  // clock high delay
   40ba4:	01000044 	movi	r4,1
   40ba8:	0058b500 	call	58b50 <usleep>
    bAck = SDA_READ(data_base)?FALSE:TRUE;  // get ack
   40bac:	e0bffe17 	ldw	r2,-8(fp)
   40bb0:	10800037 	ldwio	r2,0(r2)
   40bb4:	1005003a 	cmpeq	r2,r2,zero
   40bb8:	10803fcc 	andi	r2,r2,255
   40bbc:	e0bffc15 	stw	r2,-16(fp)
    //SCL_DELAY;
    //SDA_DIR_OUT;
    SCL_LOW(clk_base); // clock low         
   40bc0:	e0bffd17 	ldw	r2,-12(fp)
   40bc4:	0007883a 	mov	r3,zero
   40bc8:	10c00035 	stwio	r3,0(r2)
    SCL_DELAY; // clock low delay
   40bcc:	01000044 	movi	r4,1
   40bd0:	0058b500 	call	58b50 <usleep>
    return bAck;
   40bd4:	e0bffc17 	ldw	r2,-16(fp)
}    
   40bd8:	e037883a 	mov	sp,fp
   40bdc:	dfc00117 	ldw	ra,4(sp)
   40be0:	df000017 	ldw	fp,0(sp)
   40be4:	dec00204 	addi	sp,sp,8
   40be8:	f800283a 	ret

00040bec <i2c_read>:

void i2c_read(alt_u32 clk_base, alt_u32 data_base, alt_u8 *pData, bool bAck){ // return true if device response ack
   40bec:	defff804 	addi	sp,sp,-32
   40bf0:	dfc00715 	stw	ra,28(sp)
   40bf4:	df000615 	stw	fp,24(sp)
   40bf8:	df000604 	addi	fp,sp,24
   40bfc:	e13ffc15 	stw	r4,-16(fp)
   40c00:	e17ffd15 	stw	r5,-12(fp)
   40c04:	e1bffe15 	stw	r6,-8(fp)
   40c08:	e1ffff15 	stw	r7,-4(fp)
    alt_u8 Data=0;
   40c0c:	e03ffa05 	stb	zero,-24(fp)
    int i;
    
    // assume SCL = low
    
    SDA_DIR_IN(data_base);  // set data read mode
   40c10:	e0bffd17 	ldw	r2,-12(fp)
   40c14:	10800104 	addi	r2,r2,4
   40c18:	0007883a 	mov	r3,zero
   40c1c:	10c00035 	stwio	r3,0(r2)
    SCL_LOW(clk_base); // clock low
   40c20:	e0bffc17 	ldw	r2,-16(fp)
   40c24:	0007883a 	mov	r3,zero
   40c28:	10c00035 	stwio	r3,0(r2)
    SCL_DELAY; // clock low delay
   40c2c:	01000044 	movi	r4,1
   40c30:	0058b500 	call	58b50 <usleep>

    for(i=0;i<8;i++){
   40c34:	e03ffb15 	stw	zero,-20(fp)
   40c38:	00001606 	br	40c94 <i2c_read+0xa8>
        Data <<= 1;
   40c3c:	e0bffa03 	ldbu	r2,-24(fp)
   40c40:	1085883a 	add	r2,r2,r2
   40c44:	e0bffa05 	stb	r2,-24(fp)
        SCL_HIGH(clk_base);  // clock high
   40c48:	e0bffc17 	ldw	r2,-16(fp)
   40c4c:	00c00044 	movi	r3,1
   40c50:	10c00035 	stwio	r3,0(r2)
        SCL_DELAY;
   40c54:	01000044 	movi	r4,1
   40c58:	0058b500 	call	58b50 <usleep>
        if (SDA_READ(data_base))  // read data   
   40c5c:	e0bffd17 	ldw	r2,-12(fp)
   40c60:	10800037 	ldwio	r2,0(r2)
   40c64:	10000326 	beq	r2,zero,40c74 <i2c_read+0x88>
            Data |= 0x01;
   40c68:	e0bffa03 	ldbu	r2,-24(fp)
   40c6c:	10800054 	ori	r2,r2,1
   40c70:	e0bffa05 	stb	r2,-24(fp)
        SCL_LOW(clk_base);  // clock log  
   40c74:	e0bffc17 	ldw	r2,-16(fp)
   40c78:	0007883a 	mov	r3,zero
   40c7c:	10c00035 	stwio	r3,0(r2)
        SCL_DELAY;
   40c80:	01000044 	movi	r4,1
   40c84:	0058b500 	call	58b50 <usleep>
    
    SDA_DIR_IN(data_base);  // set data read mode
    SCL_LOW(clk_base); // clock low
    SCL_DELAY; // clock low delay

    for(i=0;i<8;i++){
   40c88:	e0bffb17 	ldw	r2,-20(fp)
   40c8c:	10800044 	addi	r2,r2,1
   40c90:	e0bffb15 	stw	r2,-20(fp)
   40c94:	e0bffb17 	ldw	r2,-20(fp)
   40c98:	10800210 	cmplti	r2,r2,8
   40c9c:	103fe71e 	bne	r2,zero,40c3c <__alt_data_end+0xfffc243c>
        SCL_LOW(clk_base);  // clock log  
        SCL_DELAY;
    }
    
    // send ACK
    SCL_LOW(clk_base);  // new, make sure data change at clk low
   40ca0:	e0bffc17 	ldw	r2,-16(fp)
   40ca4:	0007883a 	mov	r3,zero
   40ca8:	10c00035 	stwio	r3,0(r2)
    SDA_DIR_OUT(data_base);  // set data write mode
   40cac:	e0bffd17 	ldw	r2,-12(fp)
   40cb0:	10800104 	addi	r2,r2,4
   40cb4:	1007883a 	mov	r3,r2
   40cb8:	00800044 	movi	r2,1
   40cbc:	18800035 	stwio	r2,0(r3)
    if (bAck)
   40cc0:	e0bfff17 	ldw	r2,-4(fp)
   40cc4:	10000426 	beq	r2,zero,40cd8 <i2c_read+0xec>
        SDA_LOW(data_base);
   40cc8:	e0bffd17 	ldw	r2,-12(fp)
   40ccc:	0007883a 	mov	r3,zero
   40cd0:	10c00035 	stwio	r3,0(r2)
   40cd4:	00000306 	br	40ce4 <i2c_read+0xf8>
    else
        SDA_HIGH(data_base);
   40cd8:	e0bffd17 	ldw	r2,-12(fp)
   40cdc:	00c00044 	movi	r3,1
   40ce0:	10c00035 	stwio	r3,0(r2)
    SCL_HIGH(clk_base); // clock high
   40ce4:	e0bffc17 	ldw	r2,-16(fp)
   40ce8:	00c00044 	movi	r3,1
   40cec:	10c00035 	stwio	r3,0(r2)
    SCL_DELAY; // clock high  delay
   40cf0:	01000044 	movi	r4,1
   40cf4:	0058b500 	call	58b50 <usleep>
    SCL_LOW(clk_base); // clock low
   40cf8:	e0bffc17 	ldw	r2,-16(fp)
   40cfc:	0007883a 	mov	r3,zero
   40d00:	10c00035 	stwio	r3,0(r2)
    SCL_DELAY; // clock low delay
   40d04:	01000044 	movi	r4,1
   40d08:	0058b500 	call	58b50 <usleep>
    SDA_LOW(data_base);  // data low
   40d0c:	e0bffd17 	ldw	r2,-12(fp)
   40d10:	0007883a 	mov	r3,zero
   40d14:	10c00035 	stwio	r3,0(r2)
    SCL_DELAY; // data low delay
   40d18:	01000044 	movi	r4,1
   40d1c:	0058b500 	call	58b50 <usleep>
//    SDA_DIR_IN;  // set data read mode
    
    *pData = Data;
   40d20:	e0bffe17 	ldw	r2,-8(fp)
   40d24:	e0fffa03 	ldbu	r3,-24(fp)
   40d28:	10c00005 	stb	r3,0(r2)
}
   40d2c:	0001883a 	nop
   40d30:	e037883a 	mov	sp,fp
   40d34:	dfc00117 	ldw	ra,4(sp)
   40d38:	df000017 	ldw	fp,0(sp)
   40d3c:	dec00204 	addi	sp,sp,8
   40d40:	f800283a 	ret

00040d44 <CLOCK_Test>:
#include "terasic_includes.h"
#include "clock.h"

bool CLOCK_Test(alt_u32 BaseAddr, alt_u32 TargetCnt, alt_u32 *pclk1, alt_u32 *pclk2){
   40d44:	defff404 	addi	sp,sp,-48
   40d48:	dfc00b15 	stw	ra,44(sp)
   40d4c:	df000a15 	stw	fp,40(sp)
   40d50:	df000a04 	addi	fp,sp,40
   40d54:	e13ffc15 	stw	r4,-16(fp)
   40d58:	e17ffd15 	stw	r5,-12(fp)
   40d5c:	e1bffe15 	stw	r6,-8(fp)
   40d60:	e1ffff15 	stw	r7,-4(fp)
    bool bSuccess = TRUE;
   40d64:	00800044 	movi	r2,1
   40d68:	e0bff615 	stw	r2,-40(fp)
    const alt_u16 reg_start = 0;
   40d6c:	e03ff90d 	sth	zero,-28(fp)
    const alt_u16 reg_clk1 = 1;
   40d70:	00800044 	movi	r2,1
   40d74:	e0bff98d 	sth	r2,-26(fp)
    const alt_u16 reg_clk2 = 2;
   40d78:	00800084 	movi	r2,2
   40d7c:	e0bffa0d 	sth	r2,-24(fp)
    alt_u32 Status=1;
   40d80:	00800044 	movi	r2,1
   40d84:	e0bff715 	stw	r2,-36(fp)
    const alt_u32 RunFlag;
    int cnt=0;
   40d88:	e03ff815 	stw	zero,-32(fp)
    // start
    IOWR(BaseAddr,reg_start, 0x0000);  // stop
   40d8c:	e0bff90b 	ldhu	r2,-28(fp)
   40d90:	1085883a 	add	r2,r2,r2
   40d94:	1085883a 	add	r2,r2,r2
   40d98:	1007883a 	mov	r3,r2
   40d9c:	e0bffc17 	ldw	r2,-16(fp)
   40da0:	1885883a 	add	r2,r3,r2
   40da4:	0007883a 	mov	r3,zero
   40da8:	10c00035 	stwio	r3,0(r2)
    //IOWR(BaseAddr,reg_start, 0x03FF);  // start
    IOWR(BaseAddr,reg_start, TargetCnt);  // start
   40dac:	e0bff90b 	ldhu	r2,-28(fp)
   40db0:	1085883a 	add	r2,r2,r2
   40db4:	1085883a 	add	r2,r2,r2
   40db8:	1007883a 	mov	r3,r2
   40dbc:	e0bffc17 	ldw	r2,-16(fp)
   40dc0:	1885883a 	add	r2,r3,r2
   40dc4:	1007883a 	mov	r3,r2
   40dc8:	e0bffd17 	ldw	r2,-12(fp)
   40dcc:	18800035 	stwio	r2,0(r3)
    usleep(100*1000);
   40dd0:	010000b4 	movhi	r4,2
   40dd4:	2121a804 	addi	r4,r4,-31072
   40dd8:	0058b500 	call	58b50 <usleep>
    // wait finish
    while((Status & RunFlag) && cnt++ < 1000){
   40ddc:	00000806 	br	40e00 <CLOCK_Test+0xbc>
        Status = IORD(BaseAddr, reg_start);
   40de0:	e0bff90b 	ldhu	r2,-28(fp)
   40de4:	1085883a 	add	r2,r2,r2
   40de8:	1085883a 	add	r2,r2,r2
   40dec:	1007883a 	mov	r3,r2
   40df0:	e0bffc17 	ldw	r2,-16(fp)
   40df4:	1885883a 	add	r2,r3,r2
   40df8:	10800037 	ldwio	r2,0(r2)
   40dfc:	e0bff715 	stw	r2,-36(fp)
    IOWR(BaseAddr,reg_start, 0x0000);  // stop
    //IOWR(BaseAddr,reg_start, 0x03FF);  // start
    IOWR(BaseAddr,reg_start, TargetCnt);  // start
    usleep(100*1000);
    // wait finish
    while((Status & RunFlag) && cnt++ < 1000){
   40e00:	e0fff717 	ldw	r3,-36(fp)
   40e04:	e0bffb17 	ldw	r2,-20(fp)
   40e08:	1884703a 	and	r2,r3,r2
   40e0c:	10000526 	beq	r2,zero,40e24 <CLOCK_Test+0xe0>
   40e10:	e0bff817 	ldw	r2,-32(fp)
   40e14:	10c00044 	addi	r3,r2,1
   40e18:	e0fff815 	stw	r3,-32(fp)
   40e1c:	1080fa10 	cmplti	r2,r2,1000
   40e20:	103fef1e 	bne	r2,zero,40de0 <__alt_data_end+0xfffc25e0>
        Status = IORD(BaseAddr, reg_start);
    }    
    // check result
    if ((Status & RunFlag) == 0){     
   40e24:	e0fff717 	ldw	r3,-36(fp)
   40e28:	e0bffb17 	ldw	r2,-20(fp)
   40e2c:	1884703a 	and	r2,r3,r2
   40e30:	1000151e 	bne	r2,zero,40e88 <CLOCK_Test+0x144>
        *pclk1 = IORD(BaseAddr, reg_clk1);
   40e34:	e0bff98b 	ldhu	r2,-26(fp)
   40e38:	1085883a 	add	r2,r2,r2
   40e3c:	1085883a 	add	r2,r2,r2
   40e40:	1007883a 	mov	r3,r2
   40e44:	e0bffc17 	ldw	r2,-16(fp)
   40e48:	1885883a 	add	r2,r3,r2
   40e4c:	10800037 	ldwio	r2,0(r2)
   40e50:	1007883a 	mov	r3,r2
   40e54:	e0bffe17 	ldw	r2,-8(fp)
   40e58:	10c00015 	stw	r3,0(r2)
        *pclk2 = IORD(BaseAddr, reg_clk2);
   40e5c:	e0bffa0b 	ldhu	r2,-24(fp)
   40e60:	1085883a 	add	r2,r2,r2
   40e64:	1085883a 	add	r2,r2,r2
   40e68:	1007883a 	mov	r3,r2
   40e6c:	e0bffc17 	ldw	r2,-16(fp)
   40e70:	1885883a 	add	r2,r3,r2
   40e74:	10800037 	ldwio	r2,0(r2)
   40e78:	1007883a 	mov	r3,r2
   40e7c:	e0bfff17 	ldw	r2,-4(fp)
   40e80:	10c00015 	stw	r3,0(r2)
   40e84:	00000506 	br	40e9c <CLOCK_Test+0x158>
    }else{
        *pclk1 = 0;
   40e88:	e0bffe17 	ldw	r2,-8(fp)
   40e8c:	10000015 	stw	zero,0(r2)
        *pclk2 = 0;
   40e90:	e0bfff17 	ldw	r2,-4(fp)
   40e94:	10000015 	stw	zero,0(r2)
        bSuccess = FALSE;
   40e98:	e03ff615 	stw	zero,-40(fp)
    }        
    IOWR(BaseAddr,reg_start, 0x0000);  // stop
   40e9c:	e0bff90b 	ldhu	r2,-28(fp)
   40ea0:	1085883a 	add	r2,r2,r2
   40ea4:	1085883a 	add	r2,r2,r2
   40ea8:	1007883a 	mov	r3,r2
   40eac:	e0bffc17 	ldw	r2,-16(fp)
   40eb0:	1885883a 	add	r2,r3,r2
   40eb4:	0007883a 	mov	r3,zero
   40eb8:	10c00035 	stwio	r3,0(r2)
    return bSuccess;
   40ebc:	e0bff617 	ldw	r2,-40(fp)
}
   40ec0:	e037883a 	mov	sp,fp
   40ec4:	dfc00117 	ldw	ra,4(sp)
   40ec8:	df000017 	ldw	fp,0(sp)
   40ecc:	dec00204 	addi	sp,sp,8
   40ed0:	f800283a 	ret

00040ed4 <GUI_ShowMenu>:
    {TEST_CDCM, "CDCM61004"}, // ok
    {TEST_Si570, "Si570"} // ok
};


void GUI_ShowMenu(void){
   40ed4:	defffc04 	addi	sp,sp,-16
   40ed8:	dfc00315 	stw	ra,12(sp)
   40edc:	df000215 	stw	fp,8(sp)
   40ee0:	df000204 	addi	fp,sp,8
    int nNum,i;
    
    nNum = sizeof(szFuncList)/sizeof(szFuncList[0]);
   40ee4:	008000c4 	movi	r2,3
   40ee8:	e0bfff15 	stw	r2,-4(fp)
    printf("======= Stratix V Demo Program =======\r\n");
   40eec:	010001b4 	movhi	r4,6
   40ef0:	212af604 	addi	r4,r4,-21544
   40ef4:	00458a40 	call	458a4 <puts>
    for(i=0;i<nNum;i++){
   40ef8:	e03ffe15 	stw	zero,-8(fp)
   40efc:	00000e06 	br	40f38 <GUI_ShowMenu+0x64>
        printf("[%d] %s\r\n", i, szFuncList[i].szName);
   40f00:	e0bffe17 	ldw	r2,-8(fp)
   40f04:	10802124 	muli	r2,r2,132
   40f08:	10c00104 	addi	r3,r2,4
   40f0c:	008001b4 	movhi	r2,6
   40f10:	10ae1304 	addi	r2,r2,-18356
   40f14:	1885883a 	add	r2,r3,r2
   40f18:	100d883a 	mov	r6,r2
   40f1c:	e17ffe17 	ldw	r5,-8(fp)
   40f20:	010001b4 	movhi	r4,6
   40f24:	212b0004 	addi	r4,r4,-21504
   40f28:	00457a80 	call	457a8 <printf>
void GUI_ShowMenu(void){
    int nNum,i;
    
    nNum = sizeof(szFuncList)/sizeof(szFuncList[0]);
    printf("======= Stratix V Demo Program =======\r\n");
    for(i=0;i<nNum;i++){
   40f2c:	e0bffe17 	ldw	r2,-8(fp)
   40f30:	10800044 	addi	r2,r2,1
   40f34:	e0bffe15 	stw	r2,-8(fp)
   40f38:	e0fffe17 	ldw	r3,-8(fp)
   40f3c:	e0bfff17 	ldw	r2,-4(fp)
   40f40:	18bfef16 	blt	r3,r2,40f00 <__alt_data_end+0xfffc2700>
        printf("[%d] %s\r\n", i, szFuncList[i].szName);
    }
    printf("Input your chioce:");
   40f44:	010001b4 	movhi	r4,6
   40f48:	212b0304 	addi	r4,r4,-21492
   40f4c:	00457a80 	call	457a8 <printf>
}
   40f50:	0001883a 	nop
   40f54:	e037883a 	mov	sp,fp
   40f58:	dfc00117 	ldw	ra,4(sp)
   40f5c:	df000017 	ldw	fp,0(sp)
   40f60:	dec00204 	addi	sp,sp,8
   40f64:	f800283a 	ret

00040f68 <GUI_QueryUser>:

int GUI_QueryUser(void){
   40f68:	defffd04 	addi	sp,sp,-12
   40f6c:	dfc00215 	stw	ra,8(sp)
   40f70:	df000115 	stw	fp,4(sp)
   40f74:	df000104 	addi	fp,sp,4
    int nChoice = 0;
   40f78:	e03fff15 	stw	zero,-4(fp)
    scanf("%d", &nChoice);
   40f7c:	e17fff04 	addi	r5,fp,-4
   40f80:	010001b4 	movhi	r4,6
   40f84:	212b0804 	addi	r4,r4,-21472
   40f88:	00458b80 	call	458b8 <scanf>
    printf("%d\r\n", nChoice);
   40f8c:	e0bfff17 	ldw	r2,-4(fp)
   40f90:	100b883a 	mov	r5,r2
   40f94:	010001b4 	movhi	r4,6
   40f98:	212b0904 	addi	r4,r4,-21468
   40f9c:	00457a80 	call	457a8 <printf>
    return nChoice;
   40fa0:	e0bfff17 	ldw	r2,-4(fp)
}
   40fa4:	e037883a 	mov	sp,fp
   40fa8:	dfc00117 	ldw	ra,4(sp)
   40fac:	df000017 	ldw	fp,0(sp)
   40fb0:	dec00204 	addi	sp,sp,8
   40fb4:	f800283a 	ret

00040fb8 <main>:

//===============================================================
int main(void){
   40fb8:	defffb04 	addi	sp,sp,-20
   40fbc:	dfc00415 	stw	ra,16(sp)
   40fc0:	df000315 	stw	fp,12(sp)
   40fc4:	df000304 	addi	fp,sp,12
    int nChoice;
    int nNum;
    bool bPass;
    
    nNum = sizeof(szFuncList)/sizeof(szFuncList[0]);
   40fc8:	008000c4 	movi	r2,3
   40fcc:	e0bffd15 	stw	r2,-12(fp)
    while(1){
    	GUI_ShowMenu();
   40fd0:	0040ed40 	call	40ed4 <GUI_ShowMenu>
        nChoice = GUI_QueryUser();
   40fd4:	0040f680 	call	40f68 <GUI_QueryUser>
   40fd8:	e0bffe15 	stw	r2,-8(fp)
        if (nChoice >= 0 && nChoice < nNum){
   40fdc:	e0bffe17 	ldw	r2,-8(fp)
   40fe0:	103ffb16 	blt	r2,zero,40fd0 <__alt_data_end+0xfffc27d0>
   40fe4:	e0fffe17 	ldw	r3,-8(fp)
   40fe8:	e0bffd17 	ldw	r2,-12(fp)
   40fec:	18bff80e 	bge	r3,r2,40fd0 <__alt_data_end+0xfffc27d0>
            bPass = szFuncList[nChoice].func();
   40ff0:	008001b4 	movhi	r2,6
   40ff4:	10ae1304 	addi	r2,r2,-18356
   40ff8:	e0fffe17 	ldw	r3,-8(fp)
   40ffc:	18c02124 	muli	r3,r3,132
   41000:	10c5883a 	add	r2,r2,r3
   41004:	10800017 	ldw	r2,0(r2)
   41008:	103ee83a 	callr	r2
   4100c:	e0bfff15 	stw	r2,-4(fp)
            printf("%s Test:%s\r\n", szFuncList[nChoice].szName, bPass?"PASS":"NG");
   41010:	e0bffe17 	ldw	r2,-8(fp)
   41014:	10802124 	muli	r2,r2,132
   41018:	10c00104 	addi	r3,r2,4
   4101c:	008001b4 	movhi	r2,6
   41020:	10ae1304 	addi	r2,r2,-18356
   41024:	1887883a 	add	r3,r3,r2
   41028:	e0bfff17 	ldw	r2,-4(fp)
   4102c:	10000326 	beq	r2,zero,4103c <main+0x84>
   41030:	008001b4 	movhi	r2,6
   41034:	10ab0b04 	addi	r2,r2,-21460
   41038:	00000206 	br	41044 <main+0x8c>
   4103c:	008001b4 	movhi	r2,6
   41040:	10ab0d04 	addi	r2,r2,-21452
   41044:	100d883a 	mov	r6,r2
   41048:	180b883a 	mov	r5,r3
   4104c:	010001b4 	movhi	r4,6
   41050:	212b0e04 	addi	r4,r4,-21448
   41054:	00457a80 	call	457a8 <printf>
        }            
    }     
   41058:	003fdd06 	br	40fd0 <__alt_data_end+0xfffc27d0>

0004105c <TEST_Temperature>:
    
}


bool TEST_Temperature(void){
   4105c:	defffb04 	addi	sp,sp,-20
   41060:	dfc00415 	stw	ra,16(sp)
   41064:	df000315 	stw	fp,12(sp)
   41068:	df000304 	addi	fp,sp,12
    bool bPass = FALSE;
   4106c:	e03ffe15 	stw	zero,-8(fp)
    const alt_u8 DeviceAddr = 0x30;
   41070:	00800c04 	movi	r2,48
   41074:	e0bfff05 	stb	r2,-4(fp)
    alt_u8 LocalTemp, RemoteTemp;

    bPass = I2C_Read(TEMP_SCL_BASE, TEMP_SDA_BASE, DeviceAddr, 0x00, &LocalTemp);
   41078:	e0bfff03 	ldbu	r2,-4(fp)
   4107c:	10c03fcc 	andi	r3,r2,255
   41080:	18c0201c 	xori	r3,r3,128
   41084:	18ffe004 	addi	r3,r3,-128
   41088:	e0bfff44 	addi	r2,fp,-3
   4108c:	d8800015 	stw	r2,0(sp)
   41090:	000f883a 	mov	r7,zero
   41094:	180d883a 	mov	r6,r3
   41098:	01400234 	movhi	r5,8
   4109c:	29441004 	addi	r5,r5,4160
   410a0:	01000234 	movhi	r4,8
   410a4:	21044004 	addi	r4,r4,4352
   410a8:	00402e40 	call	402e4 <I2C_Read>
   410ac:	e0bffe15 	stw	r2,-8(fp)
    if (bPass)
   410b0:	e0bffe17 	ldw	r2,-8(fp)
   410b4:	10000e26 	beq	r2,zero,410f0 <TEST_Temperature+0x94>
        bPass = I2C_Read(TEMP_SCL_BASE, TEMP_SDA_BASE, DeviceAddr, 0x01, &RemoteTemp);
   410b8:	e0bfff03 	ldbu	r2,-4(fp)
   410bc:	10c03fcc 	andi	r3,r2,255
   410c0:	18c0201c 	xori	r3,r3,128
   410c4:	18ffe004 	addi	r3,r3,-128
   410c8:	e0bfff84 	addi	r2,fp,-2
   410cc:	d8800015 	stw	r2,0(sp)
   410d0:	01c00044 	movi	r7,1
   410d4:	180d883a 	mov	r6,r3
   410d8:	01400234 	movhi	r5,8
   410dc:	29441004 	addi	r5,r5,4160
   410e0:	01000234 	movhi	r4,8
   410e4:	21044004 	addi	r4,r4,4352
   410e8:	00402e40 	call	402e4 <I2C_Read>
   410ec:	e0bffe15 	stw	r2,-8(fp)

    if (bPass){
   410f0:	e0bffe17 	ldw	r2,-8(fp)
   410f4:	10001126 	beq	r2,zero,4113c <TEST_Temperature+0xe0>
        printf("Local Temperature:%d\r\n", (char)LocalTemp);
   410f8:	e0bfff43 	ldbu	r2,-3(fp)
   410fc:	10803fcc 	andi	r2,r2,255
   41100:	1080201c 	xori	r2,r2,128
   41104:	10bfe004 	addi	r2,r2,-128
   41108:	100b883a 	mov	r5,r2
   4110c:	010001b4 	movhi	r4,6
   41110:	212b1204 	addi	r4,r4,-21432
   41114:	00457a80 	call	457a8 <printf>
        printf("Remote Temperature:%d\r\n", (char)RemoteTemp);
   41118:	e0bfff83 	ldbu	r2,-2(fp)
   4111c:	10803fcc 	andi	r2,r2,255
   41120:	1080201c 	xori	r2,r2,128
   41124:	10bfe004 	addi	r2,r2,-128
   41128:	100b883a 	mov	r5,r2
   4112c:	010001b4 	movhi	r4,6
   41130:	212b1804 	addi	r4,r4,-21408
   41134:	00457a80 	call	457a8 <printf>
   41138:	00000306 	br	41148 <TEST_Temperature+0xec>
    }else{
        printf("Failed to read temperature\r\n");
   4113c:	010001b4 	movhi	r4,6
   41140:	212b1e04 	addi	r4,r4,-21384
   41144:	00458a40 	call	458a4 <puts>
    }        
    return bPass;
   41148:	e0bffe17 	ldw	r2,-8(fp)
}
   4114c:	e037883a 	mov	sp,fp
   41150:	dfc00117 	ldw	ra,4(sp)
   41154:	df000017 	ldw	fp,0(sp)
   41158:	dec00204 	addi	sp,sp,8
   4115c:	f800283a 	ret

00041160 <TEST_CDCM>:




//===============================================================
bool TEST_CDCM(void){
   41160:	deffda04 	addi	sp,sp,-152
   41164:	dfc02515 	stw	ra,148(sp)
   41168:	df002415 	stw	fp,144(sp)
   4116c:	dc402315 	stw	r17,140(sp)
   41170:	dc002215 	stw	r16,136(sp)
   41174:	df002404 	addi	fp,sp,144
		alt_u8 CLK_SETTING;
		float FREQUENCY;
	}CDCM_CONFIG;

	// input is 25 MHZ
	CDCM_CONFIG szConfig[] = {
   41178:	008001b4 	movhi	r2,6
   4117c:	10ab5f04 	addi	r2,r2,-21124
   41180:	e0ffe504 	addi	r3,fp,-108
   41184:	1009883a 	mov	r4,r2
   41188:	00801604 	movi	r2,88
   4118c:	100d883a 	mov	r6,r2
   41190:	200b883a 	mov	r5,r4
   41194:	1809883a 	mov	r4,r3
   41198:	00456300 	call	45630 <memcpy>
		{10, 250.0},//1010
		{11, 312.5},//1011
		{12, 625.0}//1100
	};

	bool bPass = TRUE, bSuccess;
   4119c:	00800044 	movi	r2,1
   411a0:	e0bfdc15 	stw	r2,-144(fp)
	int nNum, i, c;
	const int nTargetCnt = 1000;
   411a4:	0080fa04 	movi	r2,1000
   411a8:	e0bfdd15 	stw	r2,-140(fp)
	const int nTol = 3;
   411ac:	008000c4 	movi	r2,3
   411b0:	e0bfde15 	stw	r2,-136(fp)
	alt_u32 sfp1g_ref_clk_ctrl, sata_ref_clk_ctrl, total_ref_clk_ctrl;
	



	nNum = sizeof(szConfig)/sizeof(szConfig[0]);
   411b4:	008002c4 	movi	r2,11
   411b8:	e0bfdf15 	stw	r2,-132(fp)
	
	// show menu
	for(i=0;i<nNum;i++){
   411bc:	e03ffb15 	stw	zero,-20(fp)
   411c0:	00001406 	br	41214 <TEST_CDCM+0xb4>
		printf("%d: %.3f MHz\r\n",i, szConfig[i].FREQUENCY);
   411c4:	e43ffb17 	ldw	r16,-20(fp)
   411c8:	e0bffb17 	ldw	r2,-20(fp)
   411cc:	100490fa 	slli	r2,r2,3
   411d0:	e0ffdc04 	addi	r3,fp,-144
   411d4:	1885883a 	add	r2,r3,r2
   411d8:	10800a04 	addi	r2,r2,40
   411dc:	10c00017 	ldw	r3,0(r2)
   411e0:	1809883a 	mov	r4,r3
   411e4:	00452940 	call	45294 <__extendsfdf2>
   411e8:	1009883a 	mov	r4,r2
   411ec:	180b883a 	mov	r5,r3
   411f0:	200d883a 	mov	r6,r4
   411f4:	280f883a 	mov	r7,r5
   411f8:	800b883a 	mov	r5,r16
   411fc:	010001b4 	movhi	r4,6
   41200:	212b2504 	addi	r4,r4,-21356
   41204:	00457a80 	call	457a8 <printf>


	nNum = sizeof(szConfig)/sizeof(szConfig[0]);
	
	// show menu
	for(i=0;i<nNum;i++){
   41208:	e0bffb17 	ldw	r2,-20(fp)
   4120c:	10800044 	addi	r2,r2,1
   41210:	e0bffb15 	stw	r2,-20(fp)
   41214:	e0fffb17 	ldw	r3,-20(fp)
   41218:	e0bfdf17 	ldw	r2,-132(fp)
   4121c:	18bfe916 	blt	r3,r2,411c4 <__alt_data_end+0xfffc29c4>
		printf("%d: %.3f MHz\r\n",i, szConfig[i].FREQUENCY);
	}
	printf("Other:exit\r\n");
   41220:	010001b4 	movhi	r4,6
   41224:	212b2904 	addi	r4,r4,-21340
   41228:	00458a40 	call	458a4 <puts>
	printf("please select:");
   4122c:	010001b4 	movhi	r4,6
   41230:	212b2c04 	addi	r4,r4,-21328
   41234:	00457a80 	call	457a8 <printf>
	scanf("%d",&i);
   41238:	e0bffb04 	addi	r2,fp,-20
   4123c:	100b883a 	mov	r5,r2
   41240:	010001b4 	movhi	r4,6
   41244:	212b0804 	addi	r4,r4,-21472
   41248:	00458b80 	call	458b8 <scanf>

	if (i>=nNum)
   4124c:	e0fffb17 	ldw	r3,-20(fp)
   41250:	e0bfdf17 	ldw	r2,-132(fp)
   41254:	18800216 	blt	r3,r2,41260 <TEST_CDCM+0x100>
		return FALSE;
   41258:	0005883a 	mov	r2,zero
   4125c:	00008906 	br	41484 <TEST_CDCM+0x324>



	printf("===== CDCM61004 Programming =====\r\n");
   41260:	010001b4 	movhi	r4,6
   41264:	212b3004 	addi	r4,r4,-21312
   41268:	00458a40 	call	458a4 <puts>

		printf("%.3f MHz Test Result:\r\n", szConfig[i].FREQUENCY);
   4126c:	e0bffb17 	ldw	r2,-20(fp)
   41270:	100490fa 	slli	r2,r2,3
   41274:	e0ffdc04 	addi	r3,fp,-144
   41278:	1885883a 	add	r2,r3,r2
   4127c:	10800a04 	addi	r2,r2,40
   41280:	10c00017 	ldw	r3,0(r2)
   41284:	1809883a 	mov	r4,r3
   41288:	00452940 	call	45294 <__extendsfdf2>
   4128c:	100d883a 	mov	r6,r2
   41290:	180f883a 	mov	r7,r3
   41294:	300b883a 	mov	r5,r6
   41298:	380d883a 	mov	r6,r7
   4129c:	010001b4 	movhi	r4,6
   412a0:	212b3904 	addi	r4,r4,-21276
   412a4:	00457a80 	call	457a8 <printf>
		/////////////////
		// programming

		//{clk3_set_wr, clk2_set_wr, clk1_set_wr} <= s_writedata[11:0];
		sfp1g_ref_clk_ctrl = 1; // disable
   412a8:	00800044 	movi	r2,1
   412ac:	e0bfe015 	stw	r2,-128(fp)
		sata_ref_clk_ctrl = szConfig[i].CLK_SETTING;
   412b0:	e0bffb17 	ldw	r2,-20(fp)
   412b4:	100490fa 	slli	r2,r2,3
   412b8:	e0ffdc04 	addi	r3,fp,-144
   412bc:	1885883a 	add	r2,r3,r2
   412c0:	10800904 	addi	r2,r2,36
   412c4:	10800003 	ldbu	r2,0(r2)
   412c8:	10803fcc 	andi	r2,r2,255
   412cc:	e0bfe115 	stw	r2,-124(fp)
		total_ref_clk_ctrl = (sata_ref_clk_ctrl << 4) | sfp1g_ref_clk_ctrl;
   412d0:	e0bfe117 	ldw	r2,-124(fp)
   412d4:	1006913a 	slli	r3,r2,4
   412d8:	e0bfe017 	ldw	r2,-128(fp)
   412dc:	1884b03a 	or	r2,r3,r2
   412e0:	e0bfe215 	stw	r2,-120(fp)
		IOWR(CDCM_BASE, 0x00, total_ref_clk_ctrl );
   412e4:	e0bfe217 	ldw	r2,-120(fp)
   412e8:	0007883a 	mov	r3,zero
   412ec:	18800035 	stwio	r2,0(r3)

		// wait stable
		usleep(300*1000);
   412f0:	01000174 	movhi	r4,5
   412f4:	2124f804 	addi	r4,r4,-27680
   412f8:	0058b500 	call	58b50 <usleep>

		/////////////////
		// measure
		bSuccess =  CLOCK_Test(REF_CLOCK_SATA_COUNT_BASE, nTargetCnt, &clk1, &clk2);
   412fc:	e0bfdd17 	ldw	r2,-140(fp)
   41300:	e13ffd04 	addi	r4,fp,-12
   41304:	e0fffc04 	addi	r3,fp,-16
   41308:	200f883a 	mov	r7,r4
   4130c:	180d883a 	mov	r6,r3
   41310:	100b883a 	mov	r5,r2
   41314:	01000234 	movhi	r4,8
   41318:	21045404 	addi	r4,r4,4432
   4131c:	0040d440 	call	40d44 <CLOCK_Test>
   41320:	e0bfe315 	stw	r2,-116(fp)
		if (!bSuccess){
   41324:	e0bfe317 	ldw	r2,-116(fp)
   41328:	1000071e 	bne	r2,zero,41348 <TEST_CDCM+0x1e8>
			bPass = FALSE;
   4132c:	e03fdc15 	stw	zero,-144(fp)
			printf("  %s ref clock test NG\r\n", "SATA");
   41330:	014001b4 	movhi	r5,6
   41334:	296b3f04 	addi	r5,r5,-21252
   41338:	010001b4 	movhi	r4,6
   4133c:	212b4104 	addi	r4,r4,-21244
   41340:	00457a80 	call	457a8 <printf>
   41344:	00004e06 	br	41480 <TEST_CDCM+0x320>
		}else{
			ScaledClk2 = (int)((float) clk2 * 50.0 / szConfig[i].FREQUENCY);
   41348:	e0bffd17 	ldw	r2,-12(fp)
   4134c:	1009883a 	mov	r4,r2
   41350:	0042c280 	call	42c28 <__floatunsisf>
   41354:	1007883a 	mov	r3,r2
   41358:	1809883a 	mov	r4,r3
   4135c:	00452940 	call	45294 <__extendsfdf2>
   41360:	1011883a 	mov	r8,r2
   41364:	1813883a 	mov	r9,r3
   41368:	000d883a 	mov	r6,zero
   4136c:	01d01274 	movhi	r7,16457
   41370:	4009883a 	mov	r4,r8
   41374:	480b883a 	mov	r5,r9
   41378:	004407c0 	call	4407c <__muldf3>
   4137c:	1009883a 	mov	r4,r2
   41380:	180b883a 	mov	r5,r3
   41384:	2021883a 	mov	r16,r4
   41388:	2823883a 	mov	r17,r5
   4138c:	e0bffb17 	ldw	r2,-20(fp)
   41390:	100490fa 	slli	r2,r2,3
   41394:	e0ffdc04 	addi	r3,fp,-144
   41398:	1885883a 	add	r2,r3,r2
   4139c:	10800a04 	addi	r2,r2,40
   413a0:	10c00017 	ldw	r3,0(r2)
   413a4:	1809883a 	mov	r4,r3
   413a8:	00452940 	call	45294 <__extendsfdf2>
   413ac:	1009883a 	mov	r4,r2
   413b0:	180b883a 	mov	r5,r3
   413b4:	200d883a 	mov	r6,r4
   413b8:	280f883a 	mov	r7,r5
   413bc:	8009883a 	mov	r4,r16
   413c0:	880b883a 	mov	r5,r17
   413c4:	00435c40 	call	435c4 <__divdf3>
   413c8:	1009883a 	mov	r4,r2
   413cc:	180b883a 	mov	r5,r3
   413d0:	2005883a 	mov	r2,r4
   413d4:	2807883a 	mov	r3,r5
   413d8:	1009883a 	mov	r4,r2
   413dc:	180b883a 	mov	r5,r3
   413e0:	00450900 	call	45090 <__fixdfsi>
   413e4:	e0bfe415 	stw	r2,-112(fp)
			if (abs(nTargetCnt-clk1)<nTol && abs(clk1-ScaledClk2)<nTol){
   413e8:	e0ffdd17 	ldw	r3,-140(fp)
   413ec:	e0bffc17 	ldw	r2,-16(fp)
   413f0:	1885c83a 	sub	r2,r3,r2
   413f4:	1000010e 	bge	r2,zero,413fc <TEST_CDCM+0x29c>
   413f8:	0085c83a 	sub	r2,zero,r2
   413fc:	1007883a 	mov	r3,r2
   41400:	e0bfde17 	ldw	r2,-136(fp)
   41404:	1880130e 	bge	r3,r2,41454 <TEST_CDCM+0x2f4>
   41408:	e0fffc17 	ldw	r3,-16(fp)
   4140c:	e0bfe417 	ldw	r2,-112(fp)
   41410:	1885c83a 	sub	r2,r3,r2
   41414:	1000010e 	bge	r2,zero,4141c <TEST_CDCM+0x2bc>
   41418:	0085c83a 	sub	r2,zero,r2
   4141c:	1007883a 	mov	r3,r2
   41420:	e0bfde17 	ldw	r2,-136(fp)
   41424:	18800b0e 	bge	r3,r2,41454 <TEST_CDCM+0x2f4>
				printf("  %s ref clock test PASS (clk1=%d, clk2=%d)\r\n", "SATA", (int)clk1, (int)clk2);
   41428:	e0bffc17 	ldw	r2,-16(fp)
   4142c:	1007883a 	mov	r3,r2
   41430:	e0bffd17 	ldw	r2,-12(fp)
   41434:	100f883a 	mov	r7,r2
   41438:	180d883a 	mov	r6,r3
   4143c:	014001b4 	movhi	r5,6
   41440:	296b3f04 	addi	r5,r5,-21252
   41444:	010001b4 	movhi	r4,6
   41448:	212b4804 	addi	r4,r4,-21216
   4144c:	00457a80 	call	457a8 <printf>
   41450:	00000b06 	br	41480 <TEST_CDCM+0x320>
			}else{
				printf("  %s ref clock test NG (clk1=%d, clk2=%d)\r\n", "SATA", (int)clk1, (int)clk2);
   41454:	e0bffc17 	ldw	r2,-16(fp)
   41458:	1007883a 	mov	r3,r2
   4145c:	e0bffd17 	ldw	r2,-12(fp)
   41460:	100f883a 	mov	r7,r2
   41464:	180d883a 	mov	r6,r3
   41468:	014001b4 	movhi	r5,6
   4146c:	296b3f04 	addi	r5,r5,-21252
   41470:	010001b4 	movhi	r4,6
   41474:	212b5404 	addi	r4,r4,-21168
   41478:	00457a80 	call	457a8 <printf>
				bPass = FALSE;
   4147c:	e03fdc15 	stw	zero,-144(fp)
			}
		}



    return bPass;
   41480:	e0bfdc17 	ldw	r2,-144(fp)

}
   41484:	e6fffe04 	addi	sp,fp,-8
   41488:	dfc00317 	ldw	ra,12(sp)
   4148c:	df000217 	ldw	fp,8(sp)
   41490:	dc400117 	ldw	r17,4(sp)
   41494:	dc000017 	ldw	r16,0(sp)
   41498:	dec00404 	addi	sp,sp,16
   4149c:	f800283a 	ret

000414a0 <TEST_Si570>:


//===============================================================

bool TEST_Si570(void){
   414a0:	deffe104 	addi	sp,sp,-124
   414a4:	dfc01e15 	stw	ra,120(sp)
   414a8:	df001d15 	stw	fp,116(sp)
   414ac:	dcc01c15 	stw	r19,112(sp)
   414b0:	dc801b15 	stw	r18,108(sp)
   414b4:	dc401a15 	stw	r17,104(sp)
   414b8:	dc001915 	stw	r16,100(sp)
   414bc:	df001d04 	addi	fp,sp,116
		int FreqID;
		float FREQUENCY;
	}Si57x_CONFIG;


	Si57x_CONFIG szConfig[] = {
   414c0:	e03fec15 	stw	zero,-80(fp)
   414c4:	0090b234 	movhi	r2,17096
   414c8:	e0bfed15 	stw	r2,-76(fp)
   414cc:	00800044 	movi	r2,1
   414d0:	e0bfee15 	stw	r2,-72(fp)
   414d4:	0090beb4 	movhi	r2,17146
   414d8:	e0bfef15 	stw	r2,-68(fp)
   414dc:	00800084 	movi	r2,2
   414e0:	e0bff015 	stw	r2,-64(fp)
   414e4:	0090c734 	movhi	r2,17180
   414e8:	10900004 	addi	r2,r2,16384
   414ec:	e0bff115 	stw	r2,-60(fp)
   414f0:	008000c4 	movi	r2,3
   414f4:	e0bff215 	stw	r2,-56(fp)
   414f8:	0090deb4 	movhi	r2,17274
   414fc:	e0bff315 	stw	r2,-52(fp)
   41500:	00800104 	movi	r2,4
   41504:	e0bff415 	stw	r2,-48(fp)
   41508:	0090e734 	movhi	r2,17308
   4150c:	10900004 	addi	r2,r2,16384
   41510:	e0bff515 	stw	r2,-44(fp)
   41514:	00800144 	movi	r2,5
   41518:	e0bff615 	stw	r2,-40(fp)
   4151c:	0090e874 	movhi	r2,17313
   41520:	10888004 	addi	r2,r2,8704
   41524:	e0bff715 	stw	r2,-36(fp)
   41528:	00800204 	movi	r2,8
   4152c:	e0bff815 	stw	r2,-32(fp)
   41530:	00910874 	movhi	r2,17441
   41534:	10888004 	addi	r2,r2,8704
   41538:	e0bff915 	stw	r2,-28(fp)
		{SI57x_312M5, 312.5},
		{SI57x_322M265625, 322.265625},
		{SI57x_644M53125, 644.53125}
	};

	const alt_u8 DeviceAddr = 0x00;
   4153c:	e03fe705 	stb	zero,-100(fp)
	bool bPass;
	alt_u32 clk1, clk2,ScaledClk2;
	const int nTargetCnt=1000;
   41540:	0080fa04 	movi	r2,1000
   41544:	e0bfe815 	stw	r2,-96(fp)
	const int nTol = 3;  //tolerance
   41548:	008000c4 	movi	r2,3
   4154c:	e0bfe915 	stw	r2,-92(fp)
	int i, nNum;
	nNum = sizeof(szConfig)/sizeof(szConfig[0]);
   41550:	008001c4 	movi	r2,7
   41554:	e0bfea15 	stw	r2,-88(fp)


	// show menu
	printf("===== Si570 Programming =====\r\n");
   41558:	010001b4 	movhi	r4,6
   4155c:	212b7504 	addi	r4,r4,-21036
   41560:	00458a40 	call	458a4 <puts>
	for(i=0;i<nNum;i++){
   41564:	e03fe615 	stw	zero,-104(fp)
   41568:	00001306 	br	415b8 <TEST_Si570+0x118>
		printf("[%d] %.6f MHz\r\n",i, szConfig[i].FREQUENCY);
   4156c:	e0bfe617 	ldw	r2,-104(fp)
   41570:	100490fa 	slli	r2,r2,3
   41574:	e0ffe504 	addi	r3,fp,-108
   41578:	1885883a 	add	r2,r3,r2
   4157c:	10800804 	addi	r2,r2,32
   41580:	10c00017 	ldw	r3,0(r2)
   41584:	1809883a 	mov	r4,r3
   41588:	00452940 	call	45294 <__extendsfdf2>
   4158c:	1009883a 	mov	r4,r2
   41590:	180b883a 	mov	r5,r3
   41594:	200d883a 	mov	r6,r4
   41598:	280f883a 	mov	r7,r5
   4159c:	e17fe617 	ldw	r5,-104(fp)
   415a0:	010001b4 	movhi	r4,6
   415a4:	212b7d04 	addi	r4,r4,-21004
   415a8:	00457a80 	call	457a8 <printf>
	nNum = sizeof(szConfig)/sizeof(szConfig[0]);


	// show menu
	printf("===== Si570 Programming =====\r\n");
	for(i=0;i<nNum;i++){
   415ac:	e0bfe617 	ldw	r2,-104(fp)
   415b0:	10800044 	addi	r2,r2,1
   415b4:	e0bfe615 	stw	r2,-104(fp)
   415b8:	e0ffe617 	ldw	r3,-104(fp)
   415bc:	e0bfea17 	ldw	r2,-88(fp)
   415c0:	18bfea16 	blt	r3,r2,4156c <__alt_data_end+0xfffc2d6c>
		printf("[%d] %.6f MHz\r\n",i, szConfig[i].FREQUENCY);
	}
	printf("[%d] Dump Register\r\n", nNum);
   415c4:	e17fea17 	ldw	r5,-88(fp)
   415c8:	010001b4 	movhi	r4,6
   415cc:	212b8104 	addi	r4,r4,-20988
   415d0:	00457a80 	call	457a8 <printf>
	printf("[Other] exit\r\n");
   415d4:	010001b4 	movhi	r4,6
   415d8:	212b8704 	addi	r4,r4,-20964
   415dc:	00458a40 	call	458a4 <puts>
	printf("please select:");
   415e0:	010001b4 	movhi	r4,6
   415e4:	212b2c04 	addi	r4,r4,-21328
   415e8:	00457a80 	call	457a8 <printf>
	i = GUI_QueryUser();
   415ec:	0040f680 	call	40f68 <GUI_QueryUser>
   415f0:	e0bfe615 	stw	r2,-104(fp)

	if (i> nNum)
   415f4:	e0bfe617 	ldw	r2,-104(fp)
   415f8:	e0ffea17 	ldw	r3,-88(fp)
   415fc:	1880020e 	bge	r3,r2,41608 <TEST_Si570+0x168>
		return FALSE;
   41600:	0005883a 	mov	r2,zero
   41604:	0000d206 	br	41950 <TEST_Si570+0x4b0>

	if (i == nNum){  // dump register
   41608:	e0ffe617 	ldw	r3,-104(fp)
   4160c:	e0bfea17 	ldw	r2,-88(fp)
   41610:	18800a1e 	bne	r3,r2,4163c <TEST_Si570+0x19c>

		bPass = SI57x_Config_Dump(CLK_I2C_SCL_BASE, CLK_I2C_SDA_BASE, DeviceAddr);
   41614:	e0bfe703 	ldbu	r2,-100(fp)
   41618:	100d883a 	mov	r6,r2
   4161c:	01400234 	movhi	r5,8
   41620:	29444c04 	addi	r5,r5,4400
   41624:	01000234 	movhi	r4,8
   41628:	21045004 	addi	r4,r4,4416
   4162c:	00424480 	call	42448 <SI57x_Config_Dump>
   41630:	e0bfe515 	stw	r2,-108(fp)
		return bPass;
   41634:	e0bfe517 	ldw	r2,-108(fp)
   41638:	0000c506 	br	41950 <TEST_Si570+0x4b0>
	}

	// testing...


	bPass = SI57x_Config(szConfig[i].FreqID, CLK_I2C_SCL_BASE, CLK_I2C_SDA_BASE, DeviceAddr);
   4163c:	e0bfe617 	ldw	r2,-104(fp)
   41640:	100490fa 	slli	r2,r2,3
   41644:	e0ffe504 	addi	r3,fp,-108
   41648:	1885883a 	add	r2,r3,r2
   4164c:	10800704 	addi	r2,r2,28
   41650:	10800017 	ldw	r2,0(r2)
   41654:	1007883a 	mov	r3,r2
   41658:	e0bfe703 	ldbu	r2,-100(fp)
   4165c:	100f883a 	mov	r7,r2
   41660:	01800234 	movhi	r6,8
   41664:	31844c04 	addi	r6,r6,4400
   41668:	01400234 	movhi	r5,8
   4166c:	29445004 	addi	r5,r5,4416
   41670:	1809883a 	mov	r4,r3
   41674:	0041a780 	call	41a78 <SI57x_Config>
   41678:	e0bfe515 	stw	r2,-108(fp)


	if (bPass){
   4167c:	e0bfe517 	ldw	r2,-108(fp)
   41680:	1000b226 	beq	r2,zero,4194c <TEST_Si570+0x4ac>
			// wait
			//usleep(200*1000);

			// measure
			bPass =  CLOCK_Test(REF_CLOCK_10G_COUNT_BASE, nTargetCnt, &clk1, &clk2);
   41684:	e0bfe817 	ldw	r2,-96(fp)
   41688:	e13ffb04 	addi	r4,fp,-20
   4168c:	e0fffa04 	addi	r3,fp,-24
   41690:	200f883a 	mov	r7,r4
   41694:	180d883a 	mov	r6,r3
   41698:	100b883a 	mov	r5,r2
   4169c:	01000234 	movhi	r4,8
   416a0:	21045c04 	addi	r4,r4,4464
   416a4:	0040d440 	call	40d44 <CLOCK_Test>
   416a8:	e0bfe515 	stw	r2,-108(fp)
			if (bPass){
   416ac:	e0bfe517 	ldw	r2,-108(fp)
   416b0:	1000a326 	beq	r2,zero,41940 <TEST_Si570+0x4a0>
				ScaledClk2 = (int)((float) clk2 * 50.0 / szConfig[i].FREQUENCY);
   416b4:	e0bffb17 	ldw	r2,-20(fp)
   416b8:	1009883a 	mov	r4,r2
   416bc:	0042c280 	call	42c28 <__floatunsisf>
   416c0:	1007883a 	mov	r3,r2
   416c4:	1809883a 	mov	r4,r3
   416c8:	00452940 	call	45294 <__extendsfdf2>
   416cc:	1011883a 	mov	r8,r2
   416d0:	1813883a 	mov	r9,r3
   416d4:	000d883a 	mov	r6,zero
   416d8:	01d01274 	movhi	r7,16457
   416dc:	4009883a 	mov	r4,r8
   416e0:	480b883a 	mov	r5,r9
   416e4:	004407c0 	call	4407c <__muldf3>
   416e8:	1009883a 	mov	r4,r2
   416ec:	180b883a 	mov	r5,r3
   416f0:	2021883a 	mov	r16,r4
   416f4:	2823883a 	mov	r17,r5
   416f8:	e0bfe617 	ldw	r2,-104(fp)
   416fc:	100490fa 	slli	r2,r2,3
   41700:	e0ffe504 	addi	r3,fp,-108
   41704:	1885883a 	add	r2,r3,r2
   41708:	10800804 	addi	r2,r2,32
   4170c:	10c00017 	ldw	r3,0(r2)
   41710:	1809883a 	mov	r4,r3
   41714:	00452940 	call	45294 <__extendsfdf2>
   41718:	1009883a 	mov	r4,r2
   4171c:	180b883a 	mov	r5,r3
   41720:	200d883a 	mov	r6,r4
   41724:	280f883a 	mov	r7,r5
   41728:	8009883a 	mov	r4,r16
   4172c:	880b883a 	mov	r5,r17
   41730:	00435c40 	call	435c4 <__divdf3>
   41734:	1009883a 	mov	r4,r2
   41738:	180b883a 	mov	r5,r3
   4173c:	2005883a 	mov	r2,r4
   41740:	2807883a 	mov	r3,r5
   41744:	1009883a 	mov	r4,r2
   41748:	180b883a 	mov	r5,r3
   4174c:	00450900 	call	45090 <__fixdfsi>
   41750:	e0bfeb15 	stw	r2,-84(fp)
				if (abs(nTargetCnt-clk1)<=nTol && abs(clk1-ScaledClk2)<=nTol){
   41754:	e0ffe817 	ldw	r3,-96(fp)
   41758:	e0bffa17 	ldw	r2,-24(fp)
   4175c:	1885c83a 	sub	r2,r3,r2
   41760:	1000010e 	bge	r2,zero,41768 <TEST_Si570+0x2c8>
   41764:	0085c83a 	sub	r2,zero,r2
   41768:	1007883a 	mov	r3,r2
   4176c:	e0bfe917 	ldw	r2,-92(fp)
   41770:	10c03d16 	blt	r2,r3,41868 <TEST_Si570+0x3c8>
   41774:	e0fffa17 	ldw	r3,-24(fp)
   41778:	e0bfeb17 	ldw	r2,-84(fp)
   4177c:	1885c83a 	sub	r2,r3,r2
   41780:	1000010e 	bge	r2,zero,41788 <TEST_Si570+0x2e8>
   41784:	0085c83a 	sub	r2,zero,r2
   41788:	1007883a 	mov	r3,r2
   4178c:	e0bfe917 	ldw	r2,-92(fp)
   41790:	10c03516 	blt	r2,r3,41868 <TEST_Si570+0x3c8>
					printf("Si570/%.6fMHz clock test PASS (clk1=%d, clk2=%d, expected clk2=%d)\r\n",  szConfig[i].FREQUENCY, (int)clk1, (int)clk2, (int)((float)clk1*szConfig[i].FREQUENCY/50.0));
   41794:	e0bfe617 	ldw	r2,-104(fp)
   41798:	100490fa 	slli	r2,r2,3
   4179c:	e0ffe504 	addi	r3,fp,-108
   417a0:	1885883a 	add	r2,r3,r2
   417a4:	10800804 	addi	r2,r2,32
   417a8:	10c00017 	ldw	r3,0(r2)
   417ac:	1809883a 	mov	r4,r3
   417b0:	00452940 	call	45294 <__extendsfdf2>
   417b4:	1021883a 	mov	r16,r2
   417b8:	1823883a 	mov	r17,r3
   417bc:	e0bffa17 	ldw	r2,-24(fp)
   417c0:	1027883a 	mov	r19,r2
   417c4:	e0bffb17 	ldw	r2,-20(fp)
   417c8:	1025883a 	mov	r18,r2
   417cc:	e0bffa17 	ldw	r2,-24(fp)
   417d0:	1009883a 	mov	r4,r2
   417d4:	0042c280 	call	42c28 <__floatunsisf>
   417d8:	1009883a 	mov	r4,r2
   417dc:	e0bfe617 	ldw	r2,-104(fp)
   417e0:	100490fa 	slli	r2,r2,3
   417e4:	e0ffe504 	addi	r3,fp,-108
   417e8:	1885883a 	add	r2,r3,r2
   417ec:	10800804 	addi	r2,r2,32
   417f0:	10c00017 	ldw	r3,0(r2)
   417f4:	180b883a 	mov	r5,r3
   417f8:	004282c0 	call	4282c <__mulsf3>
   417fc:	1007883a 	mov	r3,r2
   41800:	1805883a 	mov	r2,r3
   41804:	1009883a 	mov	r4,r2
   41808:	00452940 	call	45294 <__extendsfdf2>
   4180c:	1011883a 	mov	r8,r2
   41810:	1813883a 	mov	r9,r3
   41814:	000d883a 	mov	r6,zero
   41818:	01d01274 	movhi	r7,16457
   4181c:	4009883a 	mov	r4,r8
   41820:	480b883a 	mov	r5,r9
   41824:	00435c40 	call	435c4 <__divdf3>
   41828:	1009883a 	mov	r4,r2
   4182c:	180b883a 	mov	r5,r3
   41830:	2005883a 	mov	r2,r4
   41834:	2807883a 	mov	r3,r5
   41838:	1009883a 	mov	r4,r2
   4183c:	180b883a 	mov	r5,r3
   41840:	00450900 	call	45090 <__fixdfsi>
   41844:	d8800115 	stw	r2,4(sp)
   41848:	dc800015 	stw	r18,0(sp)
   4184c:	980f883a 	mov	r7,r19
   41850:	800b883a 	mov	r5,r16
   41854:	880d883a 	mov	r6,r17
   41858:	010001b4 	movhi	r4,6
   4185c:	212b8b04 	addi	r4,r4,-20948
   41860:	00457a80 	call	457a8 <printf>
   41864:	00003906 	br	4194c <TEST_Si570+0x4ac>
				}else{
					printf("Si570/%.6fMHz clock test NG (clk1=%d, clk2=%d, expected clk2=%d)\r\n",  szConfig[i].FREQUENCY, (int)clk1, (int)clk2, (int)((float)clk1*szConfig[i].FREQUENCY/50.0));
   41868:	e0bfe617 	ldw	r2,-104(fp)
   4186c:	100490fa 	slli	r2,r2,3
   41870:	e0ffe504 	addi	r3,fp,-108
   41874:	1885883a 	add	r2,r3,r2
   41878:	10800804 	addi	r2,r2,32
   4187c:	10c00017 	ldw	r3,0(r2)
   41880:	1809883a 	mov	r4,r3
   41884:	00452940 	call	45294 <__extendsfdf2>
   41888:	1021883a 	mov	r16,r2
   4188c:	1823883a 	mov	r17,r3
   41890:	e0bffa17 	ldw	r2,-24(fp)
   41894:	1027883a 	mov	r19,r2
   41898:	e0bffb17 	ldw	r2,-20(fp)
   4189c:	1025883a 	mov	r18,r2
   418a0:	e0bffa17 	ldw	r2,-24(fp)
   418a4:	1009883a 	mov	r4,r2
   418a8:	0042c280 	call	42c28 <__floatunsisf>
   418ac:	1009883a 	mov	r4,r2
   418b0:	e0bfe617 	ldw	r2,-104(fp)
   418b4:	100490fa 	slli	r2,r2,3
   418b8:	e0ffe504 	addi	r3,fp,-108
   418bc:	1885883a 	add	r2,r3,r2
   418c0:	10800804 	addi	r2,r2,32
   418c4:	10c00017 	ldw	r3,0(r2)
   418c8:	180b883a 	mov	r5,r3
   418cc:	004282c0 	call	4282c <__mulsf3>
   418d0:	1007883a 	mov	r3,r2
   418d4:	1805883a 	mov	r2,r3
   418d8:	1009883a 	mov	r4,r2
   418dc:	00452940 	call	45294 <__extendsfdf2>
   418e0:	1011883a 	mov	r8,r2
   418e4:	1813883a 	mov	r9,r3
   418e8:	000d883a 	mov	r6,zero
   418ec:	01d01274 	movhi	r7,16457
   418f0:	4009883a 	mov	r4,r8
   418f4:	480b883a 	mov	r5,r9
   418f8:	00435c40 	call	435c4 <__divdf3>
   418fc:	1009883a 	mov	r4,r2
   41900:	180b883a 	mov	r5,r3
   41904:	2005883a 	mov	r2,r4
   41908:	2807883a 	mov	r3,r5
   4190c:	1009883a 	mov	r4,r2
   41910:	180b883a 	mov	r5,r3
   41914:	00450900 	call	45090 <__fixdfsi>
   41918:	d8800115 	stw	r2,4(sp)
   4191c:	dc800015 	stw	r18,0(sp)
   41920:	980f883a 	mov	r7,r19
   41924:	800b883a 	mov	r5,r16
   41928:	880d883a 	mov	r6,r17
   4192c:	010001b4 	movhi	r4,6
   41930:	212b9d04 	addi	r4,r4,-20876
   41934:	00457a80 	call	457a8 <printf>
					bPass = FALSE;
   41938:	e03fe515 	stw	zero,-108(fp)
   4193c:	00000306 	br	4194c <TEST_Si570+0x4ac>
				}
			}else{
				printf("Failed to perform CLOCK_Test\r\n");
   41940:	010001b4 	movhi	r4,6
   41944:	212bae04 	addi	r4,r4,-20808
   41948:	00458a40 	call	458a4 <puts>
			}
	}



	return bPass;
   4194c:	e0bfe517 	ldw	r2,-108(fp)

}
   41950:	e6fffc04 	addi	sp,fp,-16
   41954:	dfc00517 	ldw	ra,20(sp)
   41958:	df000417 	ldw	fp,16(sp)
   4195c:	dcc00317 	ldw	r19,12(sp)
   41960:	dc800217 	ldw	r18,8(sp)
   41964:	dc400117 	ldw	r17,4(sp)
   41968:	dc000017 	ldw	r16,0(sp)
   4196c:	dec00604 	addi	sp,sp,24
   41970:	f800283a 	ret

00041974 <si57x_find_DIV_NI>:
		{SI57x_500M, 		5, 2, 500.0},
		{SI57x_625M, 		4, 2, 625.0},
		{SI57x_644M53125, 	4, 2, 644.53125},
};

bool si57x_find_DIV_NI(SI57x_FREQ_ID FreqID, alt_u32 *pnHS_DIV, alt_u32 *pnN1, double *pfFreq){
   41974:	defff904 	addi	sp,sp,-28
   41978:	df000615 	stw	fp,24(sp)
   4197c:	df000604 	addi	fp,sp,24
   41980:	e13ffc15 	stw	r4,-16(fp)
   41984:	e17ffd15 	stw	r5,-12(fp)
   41988:	e1bffe15 	stw	r6,-8(fp)
   4198c:	e1ffff15 	stw	r7,-4(fp)
	bool bFind = FALSE;
   41990:	e03ffa15 	stw	zero,-24(fp)
	int i;

	for(i=0;i<sizeof(gszGi57x_ConfigTable)/sizeof(gszGi57x_ConfigTable[0]) && !bFind;i++){
   41994:	e03ffb15 	stw	zero,-20(fp)
   41998:	00002d06 	br	41a50 <si57x_find_DIV_NI+0xdc>
		if (gszGi57x_ConfigTable[i].FreqID == FreqID){
   4199c:	008001b4 	movhi	r2,6
   419a0:	10ae7604 	addi	r2,r2,-17960
   419a4:	e0fffb17 	ldw	r3,-20(fp)
   419a8:	18c00524 	muli	r3,r3,20
   419ac:	10c5883a 	add	r2,r2,r3
   419b0:	10800017 	ldw	r2,0(r2)
   419b4:	1007883a 	mov	r3,r2
   419b8:	e0bffc17 	ldw	r2,-16(fp)
   419bc:	1880211e 	bne	r3,r2,41a44 <si57x_find_DIV_NI+0xd0>
			bFind = TRUE;
   419c0:	00800044 	movi	r2,1
   419c4:	e0bffa15 	stw	r2,-24(fp)
			*pnHS_DIV = gszGi57x_ConfigTable[i].HS_DIV;
   419c8:	008001b4 	movhi	r2,6
   419cc:	10ae7604 	addi	r2,r2,-17960
   419d0:	e0fffb17 	ldw	r3,-20(fp)
   419d4:	18c00524 	muli	r3,r3,20
   419d8:	10c5883a 	add	r2,r2,r3
   419dc:	10800104 	addi	r2,r2,4
   419e0:	10800017 	ldw	r2,0(r2)
   419e4:	1007883a 	mov	r3,r2
   419e8:	e0bffd17 	ldw	r2,-12(fp)
   419ec:	10c00015 	stw	r3,0(r2)
			*pnN1 = gszGi57x_ConfigTable[i].N1;
   419f0:	008001b4 	movhi	r2,6
   419f4:	10ae7604 	addi	r2,r2,-17960
   419f8:	e0fffb17 	ldw	r3,-20(fp)
   419fc:	18c00524 	muli	r3,r3,20
   41a00:	10c5883a 	add	r2,r2,r3
   41a04:	10800204 	addi	r2,r2,8
   41a08:	10800017 	ldw	r2,0(r2)
   41a0c:	1007883a 	mov	r3,r2
   41a10:	e0bffe17 	ldw	r2,-8(fp)
   41a14:	10c00015 	stw	r3,0(r2)
			*pfFreq = gszGi57x_ConfigTable[i].FREQUENCY;
   41a18:	008001b4 	movhi	r2,6
   41a1c:	10ae7604 	addi	r2,r2,-17960
   41a20:	e0fffb17 	ldw	r3,-20(fp)
   41a24:	18c00524 	muli	r3,r3,20
   41a28:	10c5883a 	add	r2,r2,r3
   41a2c:	11000304 	addi	r4,r2,12
   41a30:	20800017 	ldw	r2,0(r4)
   41a34:	20c00117 	ldw	r3,4(r4)
   41a38:	e13fff17 	ldw	r4,-4(fp)
   41a3c:	20800015 	stw	r2,0(r4)
   41a40:	20c00115 	stw	r3,4(r4)

bool si57x_find_DIV_NI(SI57x_FREQ_ID FreqID, alt_u32 *pnHS_DIV, alt_u32 *pnN1, double *pfFreq){
	bool bFind = FALSE;
	int i;

	for(i=0;i<sizeof(gszGi57x_ConfigTable)/sizeof(gszGi57x_ConfigTable[0]) && !bFind;i++){
   41a44:	e0bffb17 	ldw	r2,-20(fp)
   41a48:	10800044 	addi	r2,r2,1
   41a4c:	e0bffb15 	stw	r2,-20(fp)
   41a50:	e0bffb17 	ldw	r2,-20(fp)
   41a54:	10800268 	cmpgeui	r2,r2,9
   41a58:	1000021e 	bne	r2,zero,41a64 <si57x_find_DIV_NI+0xf0>
   41a5c:	e0bffa17 	ldw	r2,-24(fp)
   41a60:	103fce26 	beq	r2,zero,4199c <__alt_data_end+0xfffc319c>
			*pnN1 = gszGi57x_ConfigTable[i].N1;
			*pfFreq = gszGi57x_ConfigTable[i].FREQUENCY;
		}
	} // for

	return bFind;
   41a64:	e0bffa17 	ldw	r2,-24(fp)

}
   41a68:	e037883a 	mov	sp,fp
   41a6c:	df000017 	ldw	fp,0(sp)
   41a70:	dec00104 	addi	sp,sp,4
   41a74:	f800283a 	ret

00041a78 <SI57x_Config>:



bool SI57x_Config(SI57x_FREQ_ID FreqID, alt_u32 SI57x_I2C_SCLK_BASE, alt_u32 SI57x_I2C_SDAT_BASE, int SI57x_DeviceAddr){
   41a78:	deffbe04 	addi	sp,sp,-264
   41a7c:	dfc04115 	stw	ra,260(sp)
   41a80:	df004015 	stw	fp,256(sp)
   41a84:	ddc03f15 	stw	r23,252(sp)
   41a88:	dd803e15 	stw	r22,248(sp)
   41a8c:	dd403d15 	stw	r21,244(sp)
   41a90:	dd003c15 	stw	r20,240(sp)
   41a94:	dcc03b15 	stw	r19,236(sp)
   41a98:	dc803a15 	stw	r18,232(sp)
   41a9c:	dc403915 	stw	r17,228(sp)
   41aa0:	dc003815 	stw	r16,224(sp)
   41aa4:	df004004 	addi	fp,sp,256
   41aa8:	e13fe015 	stw	r4,-128(fp)
   41aac:	e17fe115 	stw	r5,-124(fp)
   41ab0:	e1bfe215 	stw	r6,-120(fp)
   41ab4:	e1ffe315 	stw	r7,-116(fp)
	bool bSuccess;
	const alt_u8 CommandReg = 135;
   41ab8:	00bfe1c4 	movi	r2,-121
   41abc:	e0bfc805 	stb	r2,-224(fp)
	const alt_u8 FreezeDCOReg = 137;
   41ac0:	00bfe244 	movi	r2,-119
   41ac4:	e0bfc845 	stb	r2,-223(fp)
	alt_u32 REFEQ_HI, REFEQ_LOW;
	alt_u64 REFEQ;
	alt_u8 Command;
	int n;
	// startup
	double startup_fFreq = 100.0, startup_fREFEQ;
   41ac8:	e03fc915 	stw	zero,-220(fp)
   41acc:	00901674 	movhi	r2,16473
   41ad0:	e0bfca15 	stw	r2,-216(fp)
	alt_u8 startup_HS_DIV, startup_N1;
	alt_u64 startup_REFEQ;

	bSuccess = si57x_find_DIV_NI(FreqID, &HS_DIV, &N1, &fFreq);
   41ad4:	e13fdb04 	addi	r4,fp,-148
   41ad8:	e0ffde04 	addi	r3,fp,-136
   41adc:	e0bfdd04 	addi	r2,fp,-140
   41ae0:	200f883a 	mov	r7,r4
   41ae4:	180d883a 	mov	r6,r3
   41ae8:	100b883a 	mov	r5,r2
   41aec:	e13fe017 	ldw	r4,-128(fp)
   41af0:	00419740 	call	41974 <si57x_find_DIV_NI>
   41af4:	e0bfc315 	stw	r2,-244(fp)
	if (!bSuccess){
   41af8:	e0bfc317 	ldw	r2,-244(fp)
   41afc:	1000061e 	bne	r2,zero,41b18 <SI57x_Config+0xa0>
		printf("This not my preset freq id (%d)\r\n", FreqID);
   41b00:	e17fe017 	ldw	r5,-128(fp)
   41b04:	010001b4 	movhi	r4,6
   41b08:	212bb604 	addi	r4,r4,-20776
   41b0c:	00457a80 	call	457a8 <printf>
		return FALSE;
   41b10:	0005883a 	mov	r2,zero
   41b14:	00023f06 	br	42414 <SI57x_Config+0x99c>

	//////////////////////////////////////////
	// 1) Read start-up frequency configuration

	// reset
	bSuccess = I2C_Read(SI57x_I2C_SCLK_BASE, SI57x_I2C_SDAT_BASE, SI57x_DeviceAddr, CommandReg, &Command);
   41b18:	e0bfe317 	ldw	r2,-116(fp)
   41b1c:	11003fcc 	andi	r4,r2,255
   41b20:	2100201c 	xori	r4,r4,128
   41b24:	213fe004 	addi	r4,r4,-128
   41b28:	e0ffc803 	ldbu	r3,-224(fp)
   41b2c:	e0bfdf04 	addi	r2,fp,-132
   41b30:	d8800015 	stw	r2,0(sp)
   41b34:	180f883a 	mov	r7,r3
   41b38:	200d883a 	mov	r6,r4
   41b3c:	e17fe217 	ldw	r5,-120(fp)
   41b40:	e13fe117 	ldw	r4,-124(fp)
   41b44:	00402e40 	call	402e4 <I2C_Read>
   41b48:	e0bfc315 	stw	r2,-244(fp)
	if (!bSuccess){
   41b4c:	e0bfc317 	ldw	r2,-244(fp)
   41b50:	1000061e 	bne	r2,zero,41b6c <SI57x_Config+0xf4>
		printf("Failed to perform I2C read, reg-%d\r\n", CommandReg);
   41b54:	e0bfc803 	ldbu	r2,-224(fp)
   41b58:	100b883a 	mov	r5,r2
   41b5c:	010001b4 	movhi	r4,6
   41b60:	212bbf04 	addi	r4,r4,-20740
   41b64:	00457a80 	call	457a8 <printf>
   41b68:	00014a06 	br	42094 <SI57x_Config+0x61c>
	}else{
		Command |= 0x80; // assert reset
   41b6c:	e0ffdf03 	ldbu	r3,-132(fp)
   41b70:	00bfe004 	movi	r2,-128
   41b74:	1884b03a 	or	r2,r3,r2
   41b78:	e0bfdf05 	stb	r2,-132(fp)
		bSuccess = I2C_Write(SI57x_I2C_SCLK_BASE, SI57x_I2C_SDAT_BASE, SI57x_DeviceAddr, CommandReg, Command);
   41b7c:	e0bfe317 	ldw	r2,-116(fp)
   41b80:	11003fcc 	andi	r4,r2,255
   41b84:	2100201c 	xori	r4,r4,128
   41b88:	213fe004 	addi	r4,r4,-128
   41b8c:	e0ffc803 	ldbu	r3,-224(fp)
   41b90:	e0bfdf03 	ldbu	r2,-132(fp)
   41b94:	10803fcc 	andi	r2,r2,255
   41b98:	d8800015 	stw	r2,0(sp)
   41b9c:	180f883a 	mov	r7,r3
   41ba0:	200d883a 	mov	r6,r4
   41ba4:	e17fe217 	ldw	r5,-120(fp)
   41ba8:	e13fe117 	ldw	r4,-124(fp)
   41bac:	004020c0 	call	4020c <I2C_Write>
   41bb0:	e0bfc315 	stw	r2,-244(fp)
		bSuccess = TRUE; // force it to success because it always return false due to i2c state machine is interrupt
   41bb4:	00800044 	movi	r2,1
   41bb8:	e0bfc315 	stw	r2,-244(fp)
		if (!bSuccess){
		}
		if (!bSuccess){
   41bbc:	e0bfc317 	ldw	r2,-244(fp)
   41bc0:	1000041e 	bne	r2,zero,41bd4 <SI57x_Config+0x15c>
			printf("failed to reset\r\n");
   41bc4:	010001b4 	movhi	r4,6
   41bc8:	212bc904 	addi	r4,r4,-20700
   41bcc:	00458a40 	call	458a4 <puts>
   41bd0:	00013006 	br	42094 <SI57x_Config+0x61c>
		}else{
			//Asserting RST_REG will interrupt the I2C state machine.
			// richard note. wait i2c machine ready
			usleep(10*1000); // wait 10 ms
   41bd4:	0109c404 	movi	r4,10000
   41bd8:	0058b500 	call	58b50 <usleep>

			// read startup reg value
			for(n=7;n<=12 && bSuccess;n++){
   41bdc:	008001c4 	movi	r2,7
   41be0:	e0bfc715 	stw	r2,-228(fp)
   41be4:	00001306 	br	41c34 <SI57x_Config+0x1bc>
				bSuccess = I2C_Read(SI57x_I2C_SCLK_BASE, SI57x_I2C_SDAT_BASE, SI57x_DeviceAddr, n, &szReg[n]);
   41be8:	e0bfe317 	ldw	r2,-116(fp)
   41bec:	11403fcc 	andi	r5,r2,255
   41bf0:	2940201c 	xori	r5,r5,128
   41bf4:	297fe004 	addi	r5,r5,-128
   41bf8:	e0bfc717 	ldw	r2,-228(fp)
   41bfc:	11003fcc 	andi	r4,r2,255
   41c00:	e0ffd704 	addi	r3,fp,-164
   41c04:	e0bfc717 	ldw	r2,-228(fp)
   41c08:	1885883a 	add	r2,r3,r2
   41c0c:	d8800015 	stw	r2,0(sp)
   41c10:	200f883a 	mov	r7,r4
   41c14:	280d883a 	mov	r6,r5
   41c18:	e17fe217 	ldw	r5,-120(fp)
   41c1c:	e13fe117 	ldw	r4,-124(fp)
   41c20:	00402e40 	call	402e4 <I2C_Read>
   41c24:	e0bfc315 	stw	r2,-244(fp)
			//Asserting RST_REG will interrupt the I2C state machine.
			// richard note. wait i2c machine ready
			usleep(10*1000); // wait 10 ms

			// read startup reg value
			for(n=7;n<=12 && bSuccess;n++){
   41c28:	e0bfc717 	ldw	r2,-228(fp)
   41c2c:	10800044 	addi	r2,r2,1
   41c30:	e0bfc715 	stw	r2,-228(fp)
   41c34:	e0bfc717 	ldw	r2,-228(fp)
   41c38:	10800348 	cmpgei	r2,r2,13
   41c3c:	1000021e 	bne	r2,zero,41c48 <SI57x_Config+0x1d0>
   41c40:	e0bfc317 	ldw	r2,-244(fp)
   41c44:	103fe81e 	bne	r2,zero,41be8 <__alt_data_end+0xfffc33e8>
				bSuccess = I2C_Read(SI57x_I2C_SCLK_BASE, SI57x_I2C_SDAT_BASE, SI57x_DeviceAddr, n, &szReg[n]);
			}

			if (!bSuccess){
   41c48:	e0bfc317 	ldw	r2,-244(fp)
   41c4c:	1000041e 	bne	r2,zero,41c60 <SI57x_Config+0x1e8>
				printf("failed to read startup register value\r\n");
   41c50:	010001b4 	movhi	r4,6
   41c54:	212bce04 	addi	r4,r4,-20680
   41c58:	00458a40 	call	458a4 <puts>
   41c5c:	00010d06 	br	42094 <SI57x_Config+0x61c>
			}else{
				startup_HS_DIV = (szReg[7] >> 5) & 0x07;
   41c60:	e0bfd8c3 	ldbu	r2,-157(fp)
   41c64:	10803fcc 	andi	r2,r2,255
   41c68:	1004d17a 	srli	r2,r2,5
   41c6c:	e0bfcb05 	stb	r2,-212(fp)
				startup_HS_DIV += 4;
   41c70:	e0bfcb03 	ldbu	r2,-212(fp)
   41c74:	10800104 	addi	r2,r2,4
   41c78:	e0bfcb05 	stb	r2,-212(fp)

				startup_N1 = ((szReg[7] & 0x1F) << 2) | ((szReg[8] >> 6) & 0x03);
   41c7c:	e0bfd8c3 	ldbu	r2,-157(fp)
   41c80:	10803fcc 	andi	r2,r2,255
   41c84:	108007cc 	andi	r2,r2,31
   41c88:	1085883a 	add	r2,r2,r2
   41c8c:	1085883a 	add	r2,r2,r2
   41c90:	1007883a 	mov	r3,r2
   41c94:	e0bfd903 	ldbu	r2,-156(fp)
   41c98:	10803fcc 	andi	r2,r2,255
   41c9c:	1004d1ba 	srli	r2,r2,6
   41ca0:	1884b03a 	or	r2,r3,r2
   41ca4:	e0bfcb45 	stb	r2,-211(fp)
				startup_N1 += 1;
   41ca8:	e0bfcb43 	ldbu	r2,-211(fp)
   41cac:	10800044 	addi	r2,r2,1
   41cb0:	e0bfcb45 	stb	r2,-211(fp)

				startup_REFEQ = (alt_u64)szReg[12] | ((alt_u64)szReg[11] << 8) | ((alt_u64)szReg[10] << 16)  | ((alt_u64)szReg[9] << 24) |  (((alt_u64)szReg[8] & 0x3F) << 32);
   41cb4:	e0bfda03 	ldbu	r2,-152(fp)
   41cb8:	10803fcc 	andi	r2,r2,255
   41cbc:	e0bfe415 	stw	r2,-112(fp)
   41cc0:	e03fe515 	stw	zero,-108(fp)
   41cc4:	e0bfd9c3 	ldbu	r2,-153(fp)
   41cc8:	10803fcc 	andi	r2,r2,255
   41ccc:	e0bfe615 	stw	r2,-104(fp)
   41cd0:	e03fe715 	stw	zero,-100(fp)
   41cd4:	e0ffe617 	ldw	r3,-104(fp)
   41cd8:	1804d63a 	srli	r2,r3,24
   41cdc:	e0ffe717 	ldw	r3,-100(fp)
   41ce0:	182a923a 	slli	r21,r3,8
   41ce4:	156ab03a 	or	r21,r2,r21
   41ce8:	e0bfe617 	ldw	r2,-104(fp)
   41cec:	1028923a 	slli	r20,r2,8
   41cf0:	e0ffe417 	ldw	r3,-112(fp)
   41cf4:	1d06b03a 	or	r3,r3,r20
   41cf8:	e0ffe815 	stw	r3,-96(fp)
   41cfc:	e0bfe517 	ldw	r2,-108(fp)
   41d00:	1544b03a 	or	r2,r2,r21
   41d04:	e0bfe915 	stw	r2,-92(fp)
   41d08:	e0bfd983 	ldbu	r2,-154(fp)
   41d0c:	10803fcc 	andi	r2,r2,255
   41d10:	e0bfea15 	stw	r2,-88(fp)
   41d14:	e03feb15 	stw	zero,-84(fp)
   41d18:	e0ffea17 	ldw	r3,-88(fp)
   41d1c:	1804d43a 	srli	r2,r3,16
   41d20:	e0ffeb17 	ldw	r3,-84(fp)
   41d24:	1826943a 	slli	r19,r3,16
   41d28:	14e6b03a 	or	r19,r2,r19
   41d2c:	e0bfea17 	ldw	r2,-88(fp)
   41d30:	1024943a 	slli	r18,r2,16
   41d34:	e0ffe817 	ldw	r3,-96(fp)
   41d38:	1c86b03a 	or	r3,r3,r18
   41d3c:	e0ffec15 	stw	r3,-80(fp)
   41d40:	e0bfe917 	ldw	r2,-92(fp)
   41d44:	14c4b03a 	or	r2,r2,r19
   41d48:	e0bfed15 	stw	r2,-76(fp)
   41d4c:	e0bfd943 	ldbu	r2,-155(fp)
   41d50:	10803fcc 	andi	r2,r2,255
   41d54:	e0bfee15 	stw	r2,-72(fp)
   41d58:	e03fef15 	stw	zero,-68(fp)
   41d5c:	e0ffee17 	ldw	r3,-72(fp)
   41d60:	1804d23a 	srli	r2,r3,8
   41d64:	e0ffef17 	ldw	r3,-68(fp)
   41d68:	1822963a 	slli	r17,r3,24
   41d6c:	1462b03a 	or	r17,r2,r17
   41d70:	e0bfee17 	ldw	r2,-72(fp)
   41d74:	1020963a 	slli	r16,r2,24
   41d78:	e0ffec17 	ldw	r3,-80(fp)
   41d7c:	1c2cb03a 	or	r22,r3,r16
   41d80:	e0bfed17 	ldw	r2,-76(fp)
   41d84:	146eb03a 	or	r23,r2,r17
   41d88:	e0bfd903 	ldbu	r2,-156(fp)
   41d8c:	10803fcc 	andi	r2,r2,255
   41d90:	e0bff015 	stw	r2,-64(fp)
   41d94:	e03ff115 	stw	zero,-60(fp)
   41d98:	e0fff017 	ldw	r3,-64(fp)
   41d9c:	18c00fcc 	andi	r3,r3,63
   41da0:	e0fff215 	stw	r3,-56(fp)
   41da4:	e0bff117 	ldw	r2,-60(fp)
   41da8:	1004703a 	and	r2,r2,zero
   41dac:	e0bff315 	stw	r2,-52(fp)
   41db0:	e0fff217 	ldw	r3,-56(fp)
   41db4:	1806983a 	sll	r3,r3,zero
   41db8:	e0fff515 	stw	r3,-44(fp)
   41dbc:	e03ff415 	stw	zero,-48(fp)
   41dc0:	e0fff417 	ldw	r3,-48(fp)
   41dc4:	b0c4b03a 	or	r2,r22,r3
   41dc8:	e0bfcc15 	stw	r2,-208(fp)
   41dcc:	e0fff517 	ldw	r3,-44(fp)
   41dd0:	b8c4b03a 	or	r2,r23,r3
   41dd4:	e0bfcd15 	stw	r2,-204(fp)
				startup_fREFEQ = startup_REFEQ / (double)(0x01LL << 28);
   41dd8:	e13fcc17 	ldw	r4,-208(fp)
   41ddc:	e17fcd17 	ldw	r5,-204(fp)
   41de0:	00427bc0 	call	427bc <__floatundidf>
   41de4:	1011883a 	mov	r8,r2
   41de8:	1813883a 	mov	r9,r3
   41dec:	000d883a 	mov	r6,zero
   41df0:	01d06c34 	movhi	r7,16816
   41df4:	4009883a 	mov	r4,r8
   41df8:	480b883a 	mov	r5,r9
   41dfc:	00435c40 	call	435c4 <__divdf3>
   41e00:	1009883a 	mov	r4,r2
   41e04:	180b883a 	mov	r5,r3
   41e08:	e13fce15 	stw	r4,-200(fp)
   41e0c:	e17fcf15 	stw	r5,-196(fp)

				printf("startup:\r\nHS_DIV=%d,\r\nN1=%d,\r\nREFEQ=%llxh\r\nfREFEQ=%f\r\n", startup_HS_DIV, startup_N1, startup_REFEQ, startup_fREFEQ);
   41e10:	e0ffcb03 	ldbu	r3,-212(fp)
   41e14:	e13fcb43 	ldbu	r4,-211(fp)
   41e18:	e0bfce17 	ldw	r2,-200(fp)
   41e1c:	d8800115 	stw	r2,4(sp)
   41e20:	e0bfcf17 	ldw	r2,-196(fp)
   41e24:	d8800215 	stw	r2,8(sp)
   41e28:	e0bfcd17 	ldw	r2,-204(fp)
   41e2c:	d8800015 	stw	r2,0(sp)
   41e30:	e1ffcc17 	ldw	r7,-208(fp)
   41e34:	200d883a 	mov	r6,r4
   41e38:	180b883a 	mov	r5,r3
   41e3c:	010001b4 	movhi	r4,6
   41e40:	212bd804 	addi	r4,r4,-20640
   41e44:	00457a80 	call	457a8 <printf>

				//////////////////////////////////////////////////////////////////////
				// 2) Calculate the actual nominal crystal frequency where f0 is the start-up output frequency
				fxtal = (double)(startup_fFreq *  startup_HS_DIV * startup_N1) / startup_fREFEQ ; // ( f0 x HS_DIV x N1 ) / RFREQ
   41e48:	e0bfcb03 	ldbu	r2,-212(fp)
   41e4c:	1009883a 	mov	r4,r2
   41e50:	00451100 	call	45110 <__floatsidf>
   41e54:	1011883a 	mov	r8,r2
   41e58:	1813883a 	mov	r9,r3
   41e5c:	e1bfc917 	ldw	r6,-220(fp)
   41e60:	e1ffca17 	ldw	r7,-216(fp)
   41e64:	4009883a 	mov	r4,r8
   41e68:	480b883a 	mov	r5,r9
   41e6c:	004407c0 	call	4407c <__muldf3>
   41e70:	1009883a 	mov	r4,r2
   41e74:	180b883a 	mov	r5,r3
   41e78:	2021883a 	mov	r16,r4
   41e7c:	2823883a 	mov	r17,r5
   41e80:	e0bfcb43 	ldbu	r2,-211(fp)
   41e84:	1009883a 	mov	r4,r2
   41e88:	00451100 	call	45110 <__floatsidf>
   41e8c:	1009883a 	mov	r4,r2
   41e90:	180b883a 	mov	r5,r3
   41e94:	200d883a 	mov	r6,r4
   41e98:	280f883a 	mov	r7,r5
   41e9c:	8009883a 	mov	r4,r16
   41ea0:	880b883a 	mov	r5,r17
   41ea4:	004407c0 	call	4407c <__muldf3>
   41ea8:	1009883a 	mov	r4,r2
   41eac:	180b883a 	mov	r5,r3
   41eb0:	2005883a 	mov	r2,r4
   41eb4:	2807883a 	mov	r3,r5
   41eb8:	e1bfce17 	ldw	r6,-200(fp)
   41ebc:	e1ffcf17 	ldw	r7,-196(fp)
   41ec0:	1009883a 	mov	r4,r2
   41ec4:	180b883a 	mov	r5,r3
   41ec8:	00435c40 	call	435c4 <__divdf3>
   41ecc:	1009883a 	mov	r4,r2
   41ed0:	180b883a 	mov	r5,r3
   41ed4:	e13fd015 	stw	r4,-192(fp)
   41ed8:	e17fd115 	stw	r5,-188(fp)
				printf("fxtal:%f MHz\r\n", fxtal);
   41edc:	e17fd017 	ldw	r5,-192(fp)
   41ee0:	e1bfd117 	ldw	r6,-188(fp)
   41ee4:	010001b4 	movhi	r4,6
   41ee8:	212be604 	addi	r4,r4,-20584
   41eec:	00457a80 	call	457a8 <printf>

				//3) Choose the new output frequency (f1).
				//      Output Frequency (f1) = 625.000000000 MHz
				// --> bSuccess = si57x_find_DIV_NI(FreqID, &HS_DIV, &N1, &fFreq);
				printf("Output Frequency (f1) =%f MHz\r\n", fFreq);
   41ef0:	e0bfdb17 	ldw	r2,-148(fp)
   41ef4:	e0ffdc17 	ldw	r3,-144(fp)
   41ef8:	100b883a 	mov	r5,r2
   41efc:	180d883a 	mov	r6,r3
   41f00:	010001b4 	movhi	r4,6
   41f04:	212bea04 	addi	r4,r4,-20568
   41f08:	00457a80 	call	457a8 <printf>

				//4) Choose the output dividers for the new frequency configuration (HS_DIV and N1) by ensuring the DCO oscillation frequency (fdco) is between 4.85 GHz and 5.67 GHz where fdco = f1 x HS_DIV x N1. See the Divider Combinations tab for more options.
				fdco = fFreq * HS_DIV * N1;  //MHz
   41f0c:	e0bfdd17 	ldw	r2,-140(fp)
   41f10:	1009883a 	mov	r4,r2
   41f14:	00451ec0 	call	451ec <__floatunsidf>
   41f18:	1011883a 	mov	r8,r2
   41f1c:	1813883a 	mov	r9,r3
   41f20:	e0bfdb17 	ldw	r2,-148(fp)
   41f24:	e0ffdc17 	ldw	r3,-144(fp)
   41f28:	100d883a 	mov	r6,r2
   41f2c:	180f883a 	mov	r7,r3
   41f30:	4009883a 	mov	r4,r8
   41f34:	480b883a 	mov	r5,r9
   41f38:	004407c0 	call	4407c <__muldf3>
   41f3c:	1009883a 	mov	r4,r2
   41f40:	180b883a 	mov	r5,r3
   41f44:	2021883a 	mov	r16,r4
   41f48:	2823883a 	mov	r17,r5
   41f4c:	e0bfde17 	ldw	r2,-136(fp)
   41f50:	1009883a 	mov	r4,r2
   41f54:	00451ec0 	call	451ec <__floatunsidf>
   41f58:	1009883a 	mov	r4,r2
   41f5c:	180b883a 	mov	r5,r3
   41f60:	200d883a 	mov	r6,r4
   41f64:	280f883a 	mov	r7,r5
   41f68:	8009883a 	mov	r4,r16
   41f6c:	880b883a 	mov	r5,r17
   41f70:	004407c0 	call	4407c <__muldf3>
   41f74:	1009883a 	mov	r4,r2
   41f78:	180b883a 	mov	r5,r3
   41f7c:	e13fd215 	stw	r4,-184(fp)
   41f80:	e17fd315 	stw	r5,-180(fp)
				if (fdco < 4.85*1000.0){
   41f84:	000d883a 	mov	r6,zero
   41f88:	01d02cf4 	movhi	r7,16563
   41f8c:	39fc8004 	addi	r7,r7,-3584
   41f90:	e13fd217 	ldw	r4,-184(fp)
   41f94:	e17fd317 	ldw	r5,-180(fp)
   41f98:	0043f880 	call	43f88 <__ledf2>
   41f9c:	1000070e 	bge	r2,zero,41fbc <SI57x_Config+0x544>
					printf("fail: fdco(%f) < 4.8G\r\n", fdco);
   41fa0:	e17fd217 	ldw	r5,-184(fp)
   41fa4:	e1bfd317 	ldw	r6,-180(fp)
   41fa8:	010001b4 	movhi	r4,6
   41fac:	212bf204 	addi	r4,r4,-20536
   41fb0:	00457a80 	call	457a8 <printf>
					bSuccess = FALSE;
   41fb4:	e03fc315 	stw	zero,-244(fp)
   41fb8:	00001d06 	br	42030 <SI57x_Config+0x5b8>
				}else if (fdco > 5.67*1000.0){
   41fbc:	000d883a 	mov	r6,zero
   41fc0:	01d02db4 	movhi	r7,16566
   41fc4:	39c98004 	addi	r7,r7,9728
   41fc8:	e13fd217 	ldw	r4,-184(fp)
   41fcc:	e17fd317 	ldw	r5,-180(fp)
   41fd0:	0043eac0 	call	43eac <__gedf2>
   41fd4:	0080070e 	bge	zero,r2,41ff4 <SI57x_Config+0x57c>
					printf("fail: fdco(%f) > 5.67G\r\n", fdco);
   41fd8:	e17fd217 	ldw	r5,-184(fp)
   41fdc:	e1bfd317 	ldw	r6,-180(fp)
   41fe0:	010001b4 	movhi	r4,6
   41fe4:	212bf804 	addi	r4,r4,-20512
   41fe8:	00457a80 	call	457a8 <printf>
					bSuccess = FALSE;
   41fec:	e03fc315 	stw	zero,-244(fp)
   41ff0:	00000f06 	br	42030 <SI57x_Config+0x5b8>
				}else{
					printf("fdco:%f GHz\r\n", fdco/1000.0);
   41ff4:	000d883a 	mov	r6,zero
   41ff8:	01d023f4 	movhi	r7,16527
   41ffc:	39d00004 	addi	r7,r7,16384
   42000:	e13fd217 	ldw	r4,-184(fp)
   42004:	e17fd317 	ldw	r5,-180(fp)
   42008:	00435c40 	call	435c4 <__divdf3>
   4200c:	1009883a 	mov	r4,r2
   42010:	180b883a 	mov	r5,r3
   42014:	2005883a 	mov	r2,r4
   42018:	2807883a 	mov	r3,r5
   4201c:	100b883a 	mov	r5,r2
   42020:	180d883a 	mov	r6,r3
   42024:	010001b4 	movhi	r4,6
   42028:	212bff04 	addi	r4,r4,-20484
   4202c:	00457a80 	call	457a8 <printf>
				}


				// 5) Calculate the new crystal frequency multiplication ratio (RFREQ) as RFREQ = fdco / fxtal
				REFEQ = (alt_u64)(fdco/fxtal * (double)(0x01LL << 28));
   42030:	e1bfd017 	ldw	r6,-192(fp)
   42034:	e1ffd117 	ldw	r7,-188(fp)
   42038:	e13fd217 	ldw	r4,-184(fp)
   4203c:	e17fd317 	ldw	r5,-180(fp)
   42040:	00435c40 	call	435c4 <__divdf3>
   42044:	1009883a 	mov	r4,r2
   42048:	180b883a 	mov	r5,r3
   4204c:	2005883a 	mov	r2,r4
   42050:	2807883a 	mov	r3,r5
   42054:	000d883a 	mov	r6,zero
   42058:	01d06c34 	movhi	r7,16816
   4205c:	1009883a 	mov	r4,r2
   42060:	180b883a 	mov	r5,r3
   42064:	004407c0 	call	4407c <__muldf3>
   42068:	1009883a 	mov	r4,r2
   4206c:	180b883a 	mov	r5,r3
   42070:	2005883a 	mov	r2,r4
   42074:	2807883a 	mov	r3,r5
   42078:	1009883a 	mov	r4,r2
   4207c:	180b883a 	mov	r5,r3
   42080:	004272c0 	call	4272c <__fixunsdfdi>
   42084:	1009883a 	mov	r4,r2
   42088:	180b883a 	mov	r5,r3
   4208c:	e13fc515 	stw	r4,-236(fp)
   42090:	e17fc615 	stw	r5,-232(fp)
		}
	}


	// calculate new REFEQ & configre
	if (bSuccess){
   42094:	e0bfc317 	ldw	r2,-244(fp)
   42098:	1000dd26 	beq	r2,zero,42410 <SI57x_Config+0x998>
		REFEQ_HI = (REFEQ >> 32) & 0xFFFFFFFF;
   4209c:	e0bfc617 	ldw	r2,-232(fp)
   420a0:	1004d83a 	srl	r2,r2,zero
   420a4:	e0bff615 	stw	r2,-40(fp)
   420a8:	e03ff715 	stw	zero,-36(fp)
   420ac:	e0bff617 	ldw	r2,-40(fp)
   420b0:	e0bfd415 	stw	r2,-176(fp)
		REFEQ_LOW = REFEQ & 0xFFFFFFFF;
   420b4:	e0bfc517 	ldw	r2,-236(fp)
   420b8:	e0bfd515 	stw	r2,-172(fp)

		printf("HS_DIV=%xh, N1=%xh, REFEQ:%x-%xh\r\n", HS_DIV, N1, REFEQ_HI, REFEQ_LOW );
   420bc:	e0ffdd17 	ldw	r3,-140(fp)
   420c0:	e13fde17 	ldw	r4,-136(fp)
   420c4:	e0bfd517 	ldw	r2,-172(fp)
   420c8:	d8800015 	stw	r2,0(sp)
   420cc:	e1ffd417 	ldw	r7,-176(fp)
   420d0:	200d883a 	mov	r6,r4
   420d4:	180b883a 	mov	r5,r3
   420d8:	010001b4 	movhi	r4,6
   420dc:	212c0304 	addi	r4,r4,-20468
   420e0:	00457a80 	call	457a8 <printf>

		switch(HS_DIV){
   420e4:	e0bfdd17 	ldw	r2,-140(fp)
   420e8:	10bfff04 	addi	r2,r2,-4
   420ec:	10c00228 	cmpgeui	r3,r2,8
   420f0:	18001f1e 	bne	r3,zero,42170 <SI57x_Config+0x6f8>
   420f4:	100690ba 	slli	r3,r2,2
   420f8:	00800134 	movhi	r2,4
   420fc:	10884304 	addi	r2,r2,8460
   42100:	1885883a 	add	r2,r3,r2
   42104:	10800017 	ldw	r2,0(r2)
   42108:	1000683a 	jmp	r2
   4210c:	0004212c 	andhi	zero,zero,4228
   42110:	00042134 	movhi	zero,4228
   42114:	00042140 	call	4214 <__alt_mem_onchip_memory2-0x3bdec>
   42118:	0004214c 	andi	zero,zero,4229
   4211c:	00042170 	cmpltui	zero,zero,4229
   42120:	00042158 	cmpnei	zero,zero,4229
   42124:	00042170 	cmpltui	zero,zero,4229
   42128:	00042164 	muli	zero,zero,4229
			case 4: HS_DIV_REG_VALUE = 0; break;
   4212c:	e03fc415 	stw	zero,-240(fp)
   42130:	00000f06 	br	42170 <SI57x_Config+0x6f8>
			case 5: HS_DIV_REG_VALUE = 1; break;
   42134:	00800044 	movi	r2,1
   42138:	e0bfc415 	stw	r2,-240(fp)
   4213c:	00000c06 	br	42170 <SI57x_Config+0x6f8>
			case 6: HS_DIV_REG_VALUE = 2; break;
   42140:	00800084 	movi	r2,2
   42144:	e0bfc415 	stw	r2,-240(fp)
   42148:	00000906 	br	42170 <SI57x_Config+0x6f8>
			case 7: HS_DIV_REG_VALUE = 3; break;
   4214c:	008000c4 	movi	r2,3
   42150:	e0bfc415 	stw	r2,-240(fp)
   42154:	00000606 	br	42170 <SI57x_Config+0x6f8>
			case 9: HS_DIV_REG_VALUE = 5; break;
   42158:	00800144 	movi	r2,5
   4215c:	e0bfc415 	stw	r2,-240(fp)
   42160:	00000306 	br	42170 <SI57x_Config+0x6f8>
			case 11: HS_DIV_REG_VALUE = 7; break;
   42164:	008001c4 	movi	r2,7
   42168:	e0bfc415 	stw	r2,-240(fp)
   4216c:	0001883a 	nop
		}
		N1_REG_VALUE = N1-1;
   42170:	e0bfde17 	ldw	r2,-136(fp)
   42174:	10bfffc4 	addi	r2,r2,-1
   42178:	e0bfd615 	stw	r2,-168(fp)

		// build register content
		szReg[7]  = ((HS_DIV_REG_VALUE << 5) & 0xE0) | ((N1_REG_VALUE >> 2) & 0x1f);
   4217c:	e0bfc417 	ldw	r2,-240(fp)
   42180:	1004917a 	slli	r2,r2,5
   42184:	1007883a 	mov	r3,r2
   42188:	e0bfd617 	ldw	r2,-168(fp)
   4218c:	1004d0ba 	srli	r2,r2,2
   42190:	108007cc 	andi	r2,r2,31
   42194:	1884b03a 	or	r2,r3,r2
   42198:	e0bfd8c5 	stb	r2,-157(fp)
		szReg[8]  = ((REFEQ_HI) & 0x3f) | ((N1_REG_VALUE << 6) & 0xc0);
   4219c:	e0bfd417 	ldw	r2,-176(fp)
   421a0:	10800fcc 	andi	r2,r2,63
   421a4:	1007883a 	mov	r3,r2
   421a8:	e0bfd617 	ldw	r2,-168(fp)
   421ac:	100491ba 	slli	r2,r2,6
   421b0:	1884b03a 	or	r2,r3,r2
   421b4:	e0bfd905 	stb	r2,-156(fp)
		szReg[9]  = (REFEQ_LOW >> 24) & 0xff;
   421b8:	e0bfd517 	ldw	r2,-172(fp)
   421bc:	1004d63a 	srli	r2,r2,24
   421c0:	e0bfd945 	stb	r2,-155(fp)
		szReg[10] = (REFEQ_LOW >> 16) & 0xff;
   421c4:	e0bfd517 	ldw	r2,-172(fp)
   421c8:	1004d43a 	srli	r2,r2,16
   421cc:	e0bfd985 	stb	r2,-154(fp)
		szReg[11] = (REFEQ_LOW >>  8) & 0xff;
   421d0:	e0bfd517 	ldw	r2,-172(fp)
   421d4:	1004d23a 	srli	r2,r2,8
   421d8:	e0bfd9c5 	stb	r2,-153(fp)
		szReg[12] = (REFEQ_LOW >>  0) & 0xff;
   421dc:	e0bfd517 	ldw	r2,-172(fp)
   421e0:	e0bfda05 	stb	r2,-152(fp)


		// 6) Freeze the DCO by setting Freeze DCO = 1 (bit 4 of register 137).
		bSuccess = I2C_Write(SI57x_I2C_SCLK_BASE, SI57x_I2C_SDAT_BASE, SI57x_DeviceAddr, FreezeDCOReg, 0x10);
   421e4:	e0bfe317 	ldw	r2,-116(fp)
   421e8:	10c03fcc 	andi	r3,r2,255
   421ec:	18c0201c 	xori	r3,r3,128
   421f0:	18ffe004 	addi	r3,r3,-128
   421f4:	e13fc843 	ldbu	r4,-223(fp)
   421f8:	00800404 	movi	r2,16
   421fc:	d8800015 	stw	r2,0(sp)
   42200:	200f883a 	mov	r7,r4
   42204:	180d883a 	mov	r6,r3
   42208:	e17fe217 	ldw	r5,-120(fp)
   4220c:	e13fe117 	ldw	r4,-124(fp)
   42210:	004020c0 	call	4020c <I2C_Write>
   42214:	e0bfc315 	stw	r2,-244(fp)
		if (!bSuccess)
   42218:	e0bfc317 	ldw	r2,-244(fp)
   4221c:	1000031e 	bne	r2,zero,4222c <SI57x_Config+0x7b4>
			printf("failed to freeze DCO\r\n");
   42220:	010001b4 	movhi	r4,6
   42224:	212c0c04 	addi	r4,r4,-20432
   42228:	00458a40 	call	458a4 <puts>

		// 7) Write the new frequency configuration (RFREQ, HS_DIV, and N1)
		for(n=7;n<=12 && bSuccess;n++){
   4222c:	008001c4 	movi	r2,7
   42230:	e0bfc715 	stw	r2,-228(fp)
   42234:	00002106 	br	422bc <SI57x_Config+0x844>
			//printf("reg[%d] write:%02xh\r\n", n, szReg[n]);
			bSuccess = I2C_Write(SI57x_I2C_SCLK_BASE, SI57x_I2C_SDAT_BASE, SI57x_DeviceAddr, n, szReg[n]);
   42238:	e0bfe317 	ldw	r2,-116(fp)
   4223c:	11003fcc 	andi	r4,r2,255
   42240:	2100201c 	xori	r4,r4,128
   42244:	213fe004 	addi	r4,r4,-128
   42248:	e0bfc717 	ldw	r2,-228(fp)
   4224c:	11403fcc 	andi	r5,r2,255
   42250:	e0ffd704 	addi	r3,fp,-164
   42254:	e0bfc717 	ldw	r2,-228(fp)
   42258:	1885883a 	add	r2,r3,r2
   4225c:	10800003 	ldbu	r2,0(r2)
   42260:	10803fcc 	andi	r2,r2,255
   42264:	d8800015 	stw	r2,0(sp)
   42268:	280f883a 	mov	r7,r5
   4226c:	200d883a 	mov	r6,r4
   42270:	e17fe217 	ldw	r5,-120(fp)
   42274:	e13fe117 	ldw	r4,-124(fp)
   42278:	004020c0 	call	4020c <I2C_Write>
   4227c:	e0bfc315 	stw	r2,-244(fp)
			if (!bSuccess)
   42280:	e0bfc317 	ldw	r2,-244(fp)
   42284:	10000a1e 	bne	r2,zero,422b0 <SI57x_Config+0x838>
				printf("Failed to perform I2C write, reg-%d with value %02x\r\n", n, szReg[n]);
   42288:	e0ffd704 	addi	r3,fp,-164
   4228c:	e0bfc717 	ldw	r2,-228(fp)
   42290:	1885883a 	add	r2,r3,r2
   42294:	10800003 	ldbu	r2,0(r2)
   42298:	10803fcc 	andi	r2,r2,255
   4229c:	100d883a 	mov	r6,r2
   422a0:	e17fc717 	ldw	r5,-228(fp)
   422a4:	010001b4 	movhi	r4,6
   422a8:	212c1204 	addi	r4,r4,-20408
   422ac:	00457a80 	call	457a8 <printf>
		bSuccess = I2C_Write(SI57x_I2C_SCLK_BASE, SI57x_I2C_SDAT_BASE, SI57x_DeviceAddr, FreezeDCOReg, 0x10);
		if (!bSuccess)
			printf("failed to freeze DCO\r\n");

		// 7) Write the new frequency configuration (RFREQ, HS_DIV, and N1)
		for(n=7;n<=12 && bSuccess;n++){
   422b0:	e0bfc717 	ldw	r2,-228(fp)
   422b4:	10800044 	addi	r2,r2,1
   422b8:	e0bfc715 	stw	r2,-228(fp)
   422bc:	e0bfc717 	ldw	r2,-228(fp)
   422c0:	10800348 	cmpgei	r2,r2,13
   422c4:	1000021e 	bne	r2,zero,422d0 <SI57x_Config+0x858>
   422c8:	e0bfc317 	ldw	r2,-244(fp)
   422cc:	103fda1e 	bne	r2,zero,42238 <__alt_data_end+0xfffc3a38>
			if (!bSuccess)
				printf("Failed to perform I2C write, reg-%d with value %02x\r\n", n, szReg[n]);
		}

		// 8) Unfreeze the DCO by setting Freeze DCO = 0 and assert the NewFreq bit (bit 6 of register 135) within 10 ms.
		if (bSuccess){
   422d0:	e0bfc317 	ldw	r2,-244(fp)
   422d4:	10004e26 	beq	r2,zero,42410 <SI57x_Config+0x998>
			// remember current content of Command Register (register 135)
			bSuccess = I2C_Read(SI57x_I2C_SCLK_BASE, SI57x_I2C_SDAT_BASE, SI57x_DeviceAddr, CommandReg, &Command);
   422d8:	e0bfe317 	ldw	r2,-116(fp)
   422dc:	10c03fcc 	andi	r3,r2,255
   422e0:	18c0201c 	xori	r3,r3,128
   422e4:	18ffe004 	addi	r3,r3,-128
   422e8:	e13fc803 	ldbu	r4,-224(fp)
   422ec:	e0bfdf04 	addi	r2,fp,-132
   422f0:	d8800015 	stw	r2,0(sp)
   422f4:	200f883a 	mov	r7,r4
   422f8:	180d883a 	mov	r6,r3
   422fc:	e17fe217 	ldw	r5,-120(fp)
   42300:	e13fe117 	ldw	r4,-124(fp)
   42304:	00402e40 	call	402e4 <I2C_Read>
   42308:	e0bfc315 	stw	r2,-244(fp)
			if (!bSuccess)
   4230c:	e0bfc317 	ldw	r2,-244(fp)
   42310:	1000051e 	bne	r2,zero,42328 <SI57x_Config+0x8b0>
				printf("Failed to perform I2C read, reg-%d\r\n", CommandReg);
   42314:	e0bfc803 	ldbu	r2,-224(fp)
   42318:	100b883a 	mov	r5,r2
   4231c:	010001b4 	movhi	r4,6
   42320:	212bbf04 	addi	r4,r4,-20740
   42324:	00457a80 	call	457a8 <printf>

			// Unfreeze the DCO by setting Freeze DCO = 0
			bSuccess = I2C_Write(SI57x_I2C_SCLK_BASE, SI57x_I2C_SDAT_BASE, SI57x_DeviceAddr, FreezeDCOReg, 0x00);
   42328:	e0bfe317 	ldw	r2,-116(fp)
   4232c:	10803fcc 	andi	r2,r2,255
   42330:	1080201c 	xori	r2,r2,128
   42334:	10bfe004 	addi	r2,r2,-128
   42338:	e0ffc843 	ldbu	r3,-223(fp)
   4233c:	d8000015 	stw	zero,0(sp)
   42340:	180f883a 	mov	r7,r3
   42344:	100d883a 	mov	r6,r2
   42348:	e17fe217 	ldw	r5,-120(fp)
   4234c:	e13fe117 	ldw	r4,-124(fp)
   42350:	004020c0 	call	4020c <I2C_Write>
   42354:	e0bfc315 	stw	r2,-244(fp)
			if (!bSuccess)
   42358:	e0bfc317 	ldw	r2,-244(fp)
   4235c:	1000031e 	bne	r2,zero,4236c <SI57x_Config+0x8f4>
				printf("failed to unfreeze DCO\r\n");
   42360:	010001b4 	movhi	r4,6
   42364:	212c2004 	addi	r4,r4,-20352
   42368:	00458a40 	call	458a4 <puts>

			// assert the NewFreq bit (bit 6 of register 135)
			if (bSuccess){
   4236c:	e0bfc317 	ldw	r2,-244(fp)
   42370:	10002726 	beq	r2,zero,42410 <SI57x_Config+0x998>
				Command |= 0x40;
   42374:	e0bfdf03 	ldbu	r2,-132(fp)
   42378:	10801014 	ori	r2,r2,64
   4237c:	e0bfdf05 	stb	r2,-132(fp)
				bSuccess = I2C_Write(SI57x_I2C_SCLK_BASE, SI57x_I2C_SDAT_BASE, SI57x_DeviceAddr, CommandReg, Command);
   42380:	e0bfe317 	ldw	r2,-116(fp)
   42384:	10c03fcc 	andi	r3,r2,255
   42388:	18c0201c 	xori	r3,r3,128
   4238c:	18ffe004 	addi	r3,r3,-128
   42390:	e13fc803 	ldbu	r4,-224(fp)
   42394:	e0bfdf03 	ldbu	r2,-132(fp)
   42398:	10803fcc 	andi	r2,r2,255
   4239c:	d8800015 	stw	r2,0(sp)
   423a0:	200f883a 	mov	r7,r4
   423a4:	180d883a 	mov	r6,r3
   423a8:	e17fe217 	ldw	r5,-120(fp)
   423ac:	e13fe117 	ldw	r4,-124(fp)
   423b0:	004020c0 	call	4020c <I2C_Write>
   423b4:	e0bfc315 	stw	r2,-244(fp)
				if (!bSuccess){
   423b8:	e0bfc317 	ldw	r2,-244(fp)
   423bc:	1000091e 	bne	r2,zero,423e4 <SI57x_Config+0x96c>
					printf("Failed to perform I2C write, reg-%d with value %02x\r\n", CommandReg, Command);
   423c0:	e0bfc803 	ldbu	r2,-224(fp)
   423c4:	e0ffdf03 	ldbu	r3,-132(fp)
   423c8:	18c03fcc 	andi	r3,r3,255
   423cc:	180d883a 	mov	r6,r3
   423d0:	100b883a 	mov	r5,r2
   423d4:	010001b4 	movhi	r4,6
   423d8:	212c1204 	addi	r4,r4,-20408
   423dc:	00457a80 	call	457a8 <printf>
   423e0:	00000b06 	br	42410 <SI57x_Config+0x998>
				}else{
					printf("Reg-135, Reset?Freeze/Memory Control:%xh\r\n", Command);
   423e4:	e0bfdf03 	ldbu	r2,-132(fp)
   423e8:	10803fcc 	andi	r2,r2,255
   423ec:	100b883a 	mov	r5,r2
   423f0:	010001b4 	movhi	r4,6
   423f4:	212c2604 	addi	r4,r4,-20328
   423f8:	00457a80 	call	457a8 <printf>
					usleep(10*1000); // wait 10 ms to clock stable
   423fc:	0109c404 	movi	r4,10000
   42400:	0058b500 	call	58b50 <usleep>
					printf("Done\r\n");
   42404:	010001b4 	movhi	r4,6
   42408:	212c3104 	addi	r4,r4,-20284
   4240c:	00458a40 	call	458a4 <puts>

	// re-config


	//
	return bSuccess;
   42410:	e0bfc317 	ldw	r2,-244(fp)

}
   42414:	e6fff804 	addi	sp,fp,-32
   42418:	dfc00917 	ldw	ra,36(sp)
   4241c:	df000817 	ldw	fp,32(sp)
   42420:	ddc00717 	ldw	r23,28(sp)
   42424:	dd800617 	ldw	r22,24(sp)
   42428:	dd400517 	ldw	r21,20(sp)
   4242c:	dd000417 	ldw	r20,16(sp)
   42430:	dcc00317 	ldw	r19,12(sp)
   42434:	dc800217 	ldw	r18,8(sp)
   42438:	dc400117 	ldw	r17,4(sp)
   4243c:	dc000017 	ldw	r16,0(sp)
   42440:	dec00a04 	addi	sp,sp,40
   42444:	f800283a 	ret

00042448 <SI57x_Config_Dump>:


bool SI57x_Config_Dump(alt_u32 SI57x_I2C_SCLK_BASE, alt_u32 SI57x_I2C_SDAT_BASE, int SI57x_DeviceAddr){
   42448:	deffd704 	addi	sp,sp,-164
   4244c:	dfc02815 	stw	ra,160(sp)
   42450:	df002715 	stw	fp,156(sp)
   42454:	ddc02615 	stw	r23,152(sp)
   42458:	dd802515 	stw	r22,148(sp)
   4245c:	dd402415 	stw	r21,144(sp)
   42460:	dd002315 	stw	r20,140(sp)
   42464:	dcc02215 	stw	r19,136(sp)
   42468:	dc802115 	stw	r18,132(sp)
   4246c:	dc402015 	stw	r17,128(sp)
   42470:	dc001f15 	stw	r16,124(sp)
   42474:	df002704 	addi	fp,sp,156
   42478:	e13fe315 	stw	r4,-116(fp)
   4247c:	e17fe415 	stw	r5,-112(fp)
   42480:	e1bfe515 	stw	r6,-108(fp)
	alt_u8 startup_HS_DIV, startup_N1;
	alt_u64 startup_REFEQ;


			// read startup reg value
			for(n=7;n<=12 && bSuccess;n++){
   42484:	008001c4 	movi	r2,7
   42488:	e0bfdb15 	stw	r2,-148(fp)
   4248c:	00001306 	br	424dc <SI57x_Config_Dump+0x94>
				bSuccess = I2C_Read(SI57x_I2C_SCLK_BASE, SI57x_I2C_SDAT_BASE, SI57x_DeviceAddr, n, &szReg[n]);
   42490:	e0bfe517 	ldw	r2,-108(fp)
   42494:	11403fcc 	andi	r5,r2,255
   42498:	2940201c 	xori	r5,r5,128
   4249c:	297fe004 	addi	r5,r5,-128
   424a0:	e0bfdb17 	ldw	r2,-148(fp)
   424a4:	11003fcc 	andi	r4,r2,255
   424a8:	e0ffdf04 	addi	r3,fp,-132
   424ac:	e0bfdb17 	ldw	r2,-148(fp)
   424b0:	1885883a 	add	r2,r3,r2
   424b4:	d8800015 	stw	r2,0(sp)
   424b8:	200f883a 	mov	r7,r4
   424bc:	280d883a 	mov	r6,r5
   424c0:	e17fe417 	ldw	r5,-112(fp)
   424c4:	e13fe317 	ldw	r4,-116(fp)
   424c8:	00402e40 	call	402e4 <I2C_Read>
   424cc:	e0bfda15 	stw	r2,-152(fp)
	alt_u8 startup_HS_DIV, startup_N1;
	alt_u64 startup_REFEQ;


			// read startup reg value
			for(n=7;n<=12 && bSuccess;n++){
   424d0:	e0bfdb17 	ldw	r2,-148(fp)
   424d4:	10800044 	addi	r2,r2,1
   424d8:	e0bfdb15 	stw	r2,-148(fp)
   424dc:	e0bfdb17 	ldw	r2,-148(fp)
   424e0:	10800348 	cmpgei	r2,r2,13
   424e4:	1000021e 	bne	r2,zero,424f0 <SI57x_Config_Dump+0xa8>
   424e8:	e0bfda17 	ldw	r2,-152(fp)
   424ec:	103fe81e 	bne	r2,zero,42490 <__alt_data_end+0xfffc3c90>
				bSuccess = I2C_Read(SI57x_I2C_SCLK_BASE, SI57x_I2C_SDAT_BASE, SI57x_DeviceAddr, n, &szReg[n]);
			}

			if (!bSuccess){
   424f0:	e0bfda17 	ldw	r2,-152(fp)
   424f4:	1000041e 	bne	r2,zero,42508 <SI57x_Config_Dump+0xc0>
				printf("failed to read startup register value\r\n");
   424f8:	010001b4 	movhi	r4,6
   424fc:	212bce04 	addi	r4,r4,-20680
   42500:	00458a40 	call	458a4 <puts>
   42504:	00007b06 	br	426f4 <SI57x_Config_Dump+0x2ac>
			}else{
				startup_HS_DIV = (szReg[7] >> 5) & 0x07;
   42508:	e0bfe0c3 	ldbu	r2,-125(fp)
   4250c:	10803fcc 	andi	r2,r2,255
   42510:	1004d17a 	srli	r2,r2,5
   42514:	e0bfdc05 	stb	r2,-144(fp)
				startup_HS_DIV += 4;
   42518:	e0bfdc03 	ldbu	r2,-144(fp)
   4251c:	10800104 	addi	r2,r2,4
   42520:	e0bfdc05 	stb	r2,-144(fp)

				startup_N1 = ((szReg[7] & 0x1F) << 2) | ((szReg[8] >> 6) & 0x03);
   42524:	e0bfe0c3 	ldbu	r2,-125(fp)
   42528:	10803fcc 	andi	r2,r2,255
   4252c:	108007cc 	andi	r2,r2,31
   42530:	1085883a 	add	r2,r2,r2
   42534:	1085883a 	add	r2,r2,r2
   42538:	1007883a 	mov	r3,r2
   4253c:	e0bfe103 	ldbu	r2,-124(fp)
   42540:	10803fcc 	andi	r2,r2,255
   42544:	1004d1ba 	srli	r2,r2,6
   42548:	1884b03a 	or	r2,r3,r2
   4254c:	e0bfdc45 	stb	r2,-143(fp)
				startup_N1 += 1;
   42550:	e0bfdc43 	ldbu	r2,-143(fp)
   42554:	10800044 	addi	r2,r2,1
   42558:	e0bfdc45 	stb	r2,-143(fp)

				startup_REFEQ = (alt_u64)szReg[12] | ((alt_u64)szReg[11] << 8) | ((alt_u64)szReg[10] << 16)  | ((alt_u64)szReg[9] << 24) |  (((alt_u64)szReg[8] & 0x3F) << 32);
   4255c:	e0bfe203 	ldbu	r2,-120(fp)
   42560:	10803fcc 	andi	r2,r2,255
   42564:	e0bfe615 	stw	r2,-104(fp)
   42568:	e03fe715 	stw	zero,-100(fp)
   4256c:	e0bfe1c3 	ldbu	r2,-121(fp)
   42570:	10803fcc 	andi	r2,r2,255
   42574:	e0bfe815 	stw	r2,-96(fp)
   42578:	e03fe915 	stw	zero,-92(fp)
   4257c:	e0ffe817 	ldw	r3,-96(fp)
   42580:	1804d63a 	srli	r2,r3,24
   42584:	e0ffe917 	ldw	r3,-92(fp)
   42588:	182a923a 	slli	r21,r3,8
   4258c:	156ab03a 	or	r21,r2,r21
   42590:	e0bfe817 	ldw	r2,-96(fp)
   42594:	1028923a 	slli	r20,r2,8
   42598:	e0ffe617 	ldw	r3,-104(fp)
   4259c:	1d06b03a 	or	r3,r3,r20
   425a0:	e0ffea15 	stw	r3,-88(fp)
   425a4:	e0bfe717 	ldw	r2,-100(fp)
   425a8:	1544b03a 	or	r2,r2,r21
   425ac:	e0bfeb15 	stw	r2,-84(fp)
   425b0:	e0bfe183 	ldbu	r2,-122(fp)
   425b4:	10803fcc 	andi	r2,r2,255
   425b8:	e0bfec15 	stw	r2,-80(fp)
   425bc:	e03fed15 	stw	zero,-76(fp)
   425c0:	e0ffec17 	ldw	r3,-80(fp)
   425c4:	1804d43a 	srli	r2,r3,16
   425c8:	e0ffed17 	ldw	r3,-76(fp)
   425cc:	1826943a 	slli	r19,r3,16
   425d0:	14e6b03a 	or	r19,r2,r19
   425d4:	e0bfec17 	ldw	r2,-80(fp)
   425d8:	1024943a 	slli	r18,r2,16
   425dc:	e0ffea17 	ldw	r3,-88(fp)
   425e0:	1c86b03a 	or	r3,r3,r18
   425e4:	e0ffee15 	stw	r3,-72(fp)
   425e8:	e0bfeb17 	ldw	r2,-84(fp)
   425ec:	14c4b03a 	or	r2,r2,r19
   425f0:	e0bfef15 	stw	r2,-68(fp)
   425f4:	e0bfe143 	ldbu	r2,-123(fp)
   425f8:	10803fcc 	andi	r2,r2,255
   425fc:	e0bff015 	stw	r2,-64(fp)
   42600:	e03ff115 	stw	zero,-60(fp)
   42604:	e0fff017 	ldw	r3,-64(fp)
   42608:	1804d23a 	srli	r2,r3,8
   4260c:	e0fff117 	ldw	r3,-60(fp)
   42610:	1822963a 	slli	r17,r3,24
   42614:	1462b03a 	or	r17,r2,r17
   42618:	e0bff017 	ldw	r2,-64(fp)
   4261c:	1020963a 	slli	r16,r2,24
   42620:	e0ffee17 	ldw	r3,-72(fp)
   42624:	1c2cb03a 	or	r22,r3,r16
   42628:	e0bfef17 	ldw	r2,-68(fp)
   4262c:	146eb03a 	or	r23,r2,r17
   42630:	e0bfe103 	ldbu	r2,-124(fp)
   42634:	10803fcc 	andi	r2,r2,255
   42638:	e0bff215 	stw	r2,-56(fp)
   4263c:	e03ff315 	stw	zero,-52(fp)
   42640:	e0fff217 	ldw	r3,-56(fp)
   42644:	18c00fcc 	andi	r3,r3,63
   42648:	e0fff415 	stw	r3,-48(fp)
   4264c:	e0bff317 	ldw	r2,-52(fp)
   42650:	1004703a 	and	r2,r2,zero
   42654:	e0bff515 	stw	r2,-44(fp)
   42658:	e0fff417 	ldw	r3,-48(fp)
   4265c:	1806983a 	sll	r3,r3,zero
   42660:	e0fff715 	stw	r3,-36(fp)
   42664:	e03ff615 	stw	zero,-40(fp)
   42668:	e0fff617 	ldw	r3,-40(fp)
   4266c:	b0c4b03a 	or	r2,r22,r3
   42670:	e0bfdd15 	stw	r2,-140(fp)
   42674:	e0fff717 	ldw	r3,-36(fp)
   42678:	b8c4b03a 	or	r2,r23,r3
   4267c:	e0bfde15 	stw	r2,-136(fp)

				printf("startup:\r\nHS_DIV=%d,\r\nN1=%d,\r\nREFEQ=%llxh\r\n", startup_HS_DIV, startup_N1, startup_REFEQ);
   42680:	e0ffdc03 	ldbu	r3,-144(fp)
   42684:	e13fdc43 	ldbu	r4,-143(fp)
   42688:	e0bfde17 	ldw	r2,-136(fp)
   4268c:	d8800015 	stw	r2,0(sp)
   42690:	e1ffdd17 	ldw	r7,-140(fp)
   42694:	200d883a 	mov	r6,r4
   42698:	180b883a 	mov	r5,r3
   4269c:	010001b4 	movhi	r4,6
   426a0:	212c3304 	addi	r4,r4,-20276
   426a4:	00457a80 	call	457a8 <printf>

				for(n=7;n<=12;n++){
   426a8:	008001c4 	movi	r2,7
   426ac:	e0bfdb15 	stw	r2,-148(fp)
   426b0:	00000d06 	br	426e8 <SI57x_Config_Dump+0x2a0>
					printf("reg[%d]=%02xh\r\n", n, szReg[n]);
   426b4:	e0ffdf04 	addi	r3,fp,-132
   426b8:	e0bfdb17 	ldw	r2,-148(fp)
   426bc:	1885883a 	add	r2,r3,r2
   426c0:	10800003 	ldbu	r2,0(r2)
   426c4:	10803fcc 	andi	r2,r2,255
   426c8:	100d883a 	mov	r6,r2
   426cc:	e17fdb17 	ldw	r5,-148(fp)
   426d0:	010001b4 	movhi	r4,6
   426d4:	212c3e04 	addi	r4,r4,-20232
   426d8:	00457a80 	call	457a8 <printf>

				startup_REFEQ = (alt_u64)szReg[12] | ((alt_u64)szReg[11] << 8) | ((alt_u64)szReg[10] << 16)  | ((alt_u64)szReg[9] << 24) |  (((alt_u64)szReg[8] & 0x3F) << 32);

				printf("startup:\r\nHS_DIV=%d,\r\nN1=%d,\r\nREFEQ=%llxh\r\n", startup_HS_DIV, startup_N1, startup_REFEQ);

				for(n=7;n<=12;n++){
   426dc:	e0bfdb17 	ldw	r2,-148(fp)
   426e0:	10800044 	addi	r2,r2,1
   426e4:	e0bfdb15 	stw	r2,-148(fp)
   426e8:	e0bfdb17 	ldw	r2,-148(fp)
   426ec:	10800350 	cmplti	r2,r2,13
   426f0:	103ff01e 	bne	r2,zero,426b4 <__alt_data_end+0xfffc3eb4>
			}




	return bSuccess;
   426f4:	e0bfda17 	ldw	r2,-152(fp)


}
   426f8:	e6fff804 	addi	sp,fp,-32
   426fc:	dfc00917 	ldw	ra,36(sp)
   42700:	df000817 	ldw	fp,32(sp)
   42704:	ddc00717 	ldw	r23,28(sp)
   42708:	dd800617 	ldw	r22,24(sp)
   4270c:	dd400517 	ldw	r21,20(sp)
   42710:	dd000417 	ldw	r20,16(sp)
   42714:	dcc00317 	ldw	r19,12(sp)
   42718:	dc800217 	ldw	r18,8(sp)
   4271c:	dc400117 	ldw	r17,4(sp)
   42720:	dc000017 	ldw	r16,0(sp)
   42724:	dec00a04 	addi	sp,sp,40
   42728:	f800283a 	ret

0004272c <__fixunsdfdi>:
   4272c:	defffc04 	addi	sp,sp,-16
   42730:	000d883a 	mov	r6,zero
   42734:	01cf7c34 	movhi	r7,15856
   42738:	dfc00315 	stw	ra,12(sp)
   4273c:	dc800215 	stw	r18,8(sp)
   42740:	dc400115 	stw	r17,4(sp)
   42744:	2025883a 	mov	r18,r4
   42748:	2823883a 	mov	r17,r5
   4274c:	dc000015 	stw	r16,0(sp)
   42750:	004407c0 	call	4407c <__muldf3>
   42754:	180b883a 	mov	r5,r3
   42758:	1009883a 	mov	r4,r2
   4275c:	00454080 	call	45408 <__fixunsdfsi>
   42760:	1009883a 	mov	r4,r2
   42764:	1021883a 	mov	r16,r2
   42768:	00451ec0 	call	451ec <__floatunsidf>
   4276c:	000d883a 	mov	r6,zero
   42770:	01d07c34 	movhi	r7,16880
   42774:	1009883a 	mov	r4,r2
   42778:	180b883a 	mov	r5,r3
   4277c:	004407c0 	call	4407c <__muldf3>
   42780:	100d883a 	mov	r6,r2
   42784:	180f883a 	mov	r7,r3
   42788:	9009883a 	mov	r4,r18
   4278c:	880b883a 	mov	r5,r17
   42790:	00447940 	call	44794 <__subdf3>
   42794:	180b883a 	mov	r5,r3
   42798:	1009883a 	mov	r4,r2
   4279c:	00454080 	call	45408 <__fixunsdfsi>
   427a0:	8007883a 	mov	r3,r16
   427a4:	dfc00317 	ldw	ra,12(sp)
   427a8:	dc800217 	ldw	r18,8(sp)
   427ac:	dc400117 	ldw	r17,4(sp)
   427b0:	dc000017 	ldw	r16,0(sp)
   427b4:	dec00404 	addi	sp,sp,16
   427b8:	f800283a 	ret

000427bc <__floatundidf>:
   427bc:	defffc04 	addi	sp,sp,-16
   427c0:	dc800215 	stw	r18,8(sp)
   427c4:	2025883a 	mov	r18,r4
   427c8:	2809883a 	mov	r4,r5
   427cc:	dfc00315 	stw	ra,12(sp)
   427d0:	dc400115 	stw	r17,4(sp)
   427d4:	dc000015 	stw	r16,0(sp)
   427d8:	00451ec0 	call	451ec <__floatunsidf>
   427dc:	000d883a 	mov	r6,zero
   427e0:	01d07c34 	movhi	r7,16880
   427e4:	180b883a 	mov	r5,r3
   427e8:	1009883a 	mov	r4,r2
   427ec:	004407c0 	call	4407c <__muldf3>
   427f0:	9009883a 	mov	r4,r18
   427f4:	1023883a 	mov	r17,r2
   427f8:	1821883a 	mov	r16,r3
   427fc:	00451ec0 	call	451ec <__floatunsidf>
   42800:	880d883a 	mov	r6,r17
   42804:	800f883a 	mov	r7,r16
   42808:	1009883a 	mov	r4,r2
   4280c:	180b883a 	mov	r5,r3
   42810:	0042d180 	call	42d18 <__adddf3>
   42814:	dfc00317 	ldw	ra,12(sp)
   42818:	dc800217 	ldw	r18,8(sp)
   4281c:	dc400117 	ldw	r17,4(sp)
   42820:	dc000017 	ldw	r16,0(sp)
   42824:	dec00404 	addi	sp,sp,16
   42828:	f800283a 	ret

0004282c <__mulsf3>:
   4282c:	defff504 	addi	sp,sp,-44
   42830:	dc000115 	stw	r16,4(sp)
   42834:	2020d5fa 	srli	r16,r4,23
   42838:	dd400615 	stw	r21,24(sp)
   4283c:	202ad7fa 	srli	r21,r4,31
   42840:	dc800315 	stw	r18,12(sp)
   42844:	04802034 	movhi	r18,128
   42848:	df000915 	stw	fp,36(sp)
   4284c:	dd000515 	stw	r20,20(sp)
   42850:	94bfffc4 	addi	r18,r18,-1
   42854:	dfc00a15 	stw	ra,40(sp)
   42858:	ddc00815 	stw	r23,32(sp)
   4285c:	dd800715 	stw	r22,28(sp)
   42860:	dcc00415 	stw	r19,16(sp)
   42864:	dc400215 	stw	r17,8(sp)
   42868:	84003fcc 	andi	r16,r16,255
   4286c:	9124703a 	and	r18,r18,r4
   42870:	a829883a 	mov	r20,r21
   42874:	af003fcc 	andi	fp,r21,255
   42878:	80005426 	beq	r16,zero,429cc <__mulsf3+0x1a0>
   4287c:	00803fc4 	movi	r2,255
   42880:	80802f26 	beq	r16,r2,42940 <__mulsf3+0x114>
   42884:	91002034 	orhi	r4,r18,128
   42888:	202490fa 	slli	r18,r4,3
   4288c:	843fe044 	addi	r16,r16,-127
   42890:	0023883a 	mov	r17,zero
   42894:	002f883a 	mov	r23,zero
   42898:	2804d5fa 	srli	r2,r5,23
   4289c:	282cd7fa 	srli	r22,r5,31
   428a0:	01002034 	movhi	r4,128
   428a4:	213fffc4 	addi	r4,r4,-1
   428a8:	10803fcc 	andi	r2,r2,255
   428ac:	2166703a 	and	r19,r4,r5
   428b0:	b1803fcc 	andi	r6,r22,255
   428b4:	10004c26 	beq	r2,zero,429e8 <__mulsf3+0x1bc>
   428b8:	00c03fc4 	movi	r3,255
   428bc:	10c04726 	beq	r2,r3,429dc <__mulsf3+0x1b0>
   428c0:	99002034 	orhi	r4,r19,128
   428c4:	202690fa 	slli	r19,r4,3
   428c8:	10bfe044 	addi	r2,r2,-127
   428cc:	0007883a 	mov	r3,zero
   428d0:	80a1883a 	add	r16,r16,r2
   428d4:	010003c4 	movi	r4,15
   428d8:	1c44b03a 	or	r2,r3,r17
   428dc:	b56af03a 	xor	r21,r22,r21
   428e0:	81c00044 	addi	r7,r16,1
   428e4:	20806b36 	bltu	r4,r2,42a94 <__mulsf3+0x268>
   428e8:	100490ba 	slli	r2,r2,2
   428ec:	01000134 	movhi	r4,4
   428f0:	210a4004 	addi	r4,r4,10496
   428f4:	1105883a 	add	r2,r2,r4
   428f8:	10800017 	ldw	r2,0(r2)
   428fc:	1000683a 	jmp	r2
   42900:	00042a94 	movui	zero,4266
   42904:	00042954 	movui	zero,4261
   42908:	00042954 	movui	zero,4261
   4290c:	00042950 	cmplti	zero,zero,4261
   42910:	00042a78 	rdprs	zero,zero,4265
   42914:	00042a78 	rdprs	zero,zero,4265
   42918:	00042a64 	muli	zero,zero,4265
   4291c:	00042950 	cmplti	zero,zero,4261
   42920:	00042a78 	rdprs	zero,zero,4265
   42924:	00042a64 	muli	zero,zero,4265
   42928:	00042a78 	rdprs	zero,zero,4265
   4292c:	00042950 	cmplti	zero,zero,4261
   42930:	00042a84 	movi	zero,4266
   42934:	00042a84 	movi	zero,4266
   42938:	00042a84 	movi	zero,4266
   4293c:	00042b60 	cmpeqi	zero,zero,4269
   42940:	90003b1e 	bne	r18,zero,42a30 <__mulsf3+0x204>
   42944:	04400204 	movi	r17,8
   42948:	05c00084 	movi	r23,2
   4294c:	003fd206 	br	42898 <__alt_data_end+0xfffc4098>
   42950:	302b883a 	mov	r21,r6
   42954:	00800084 	movi	r2,2
   42958:	18802626 	beq	r3,r2,429f4 <__mulsf3+0x1c8>
   4295c:	008000c4 	movi	r2,3
   42960:	1880ab26 	beq	r3,r2,42c10 <__mulsf3+0x3e4>
   42964:	00800044 	movi	r2,1
   42968:	1880a21e 	bne	r3,r2,42bf4 <__mulsf3+0x3c8>
   4296c:	a829883a 	mov	r20,r21
   42970:	0007883a 	mov	r3,zero
   42974:	0009883a 	mov	r4,zero
   42978:	18803fcc 	andi	r2,r3,255
   4297c:	100695fa 	slli	r3,r2,23
   42980:	a0803fcc 	andi	r2,r20,255
   42984:	100a97fa 	slli	r5,r2,31
   42988:	00802034 	movhi	r2,128
   4298c:	10bfffc4 	addi	r2,r2,-1
   42990:	2084703a 	and	r2,r4,r2
   42994:	10c4b03a 	or	r2,r2,r3
   42998:	1144b03a 	or	r2,r2,r5
   4299c:	dfc00a17 	ldw	ra,40(sp)
   429a0:	df000917 	ldw	fp,36(sp)
   429a4:	ddc00817 	ldw	r23,32(sp)
   429a8:	dd800717 	ldw	r22,28(sp)
   429ac:	dd400617 	ldw	r21,24(sp)
   429b0:	dd000517 	ldw	r20,20(sp)
   429b4:	dcc00417 	ldw	r19,16(sp)
   429b8:	dc800317 	ldw	r18,12(sp)
   429bc:	dc400217 	ldw	r17,8(sp)
   429c0:	dc000117 	ldw	r16,4(sp)
   429c4:	dec00b04 	addi	sp,sp,44
   429c8:	f800283a 	ret
   429cc:	90000d1e 	bne	r18,zero,42a04 <__mulsf3+0x1d8>
   429d0:	04400104 	movi	r17,4
   429d4:	05c00044 	movi	r23,1
   429d8:	003faf06 	br	42898 <__alt_data_end+0xfffc4098>
   429dc:	9806c03a 	cmpne	r3,r19,zero
   429e0:	18c00084 	addi	r3,r3,2
   429e4:	003fba06 	br	428d0 <__alt_data_end+0xfffc40d0>
   429e8:	9800141e 	bne	r19,zero,42a3c <__mulsf3+0x210>
   429ec:	00c00044 	movi	r3,1
   429f0:	003fb706 	br	428d0 <__alt_data_end+0xfffc40d0>
   429f4:	a829883a 	mov	r20,r21
   429f8:	00ffffc4 	movi	r3,-1
   429fc:	0009883a 	mov	r4,zero
   42a00:	003fdd06 	br	42978 <__alt_data_end+0xfffc4178>
   42a04:	9009883a 	mov	r4,r18
   42a08:	d9400015 	stw	r5,0(sp)
   42a0c:	00453a40 	call	453a4 <__clzsi2>
   42a10:	10fffec4 	addi	r3,r2,-5
   42a14:	10801d84 	addi	r2,r2,118
   42a18:	90e4983a 	sll	r18,r18,r3
   42a1c:	00a1c83a 	sub	r16,zero,r2
   42a20:	0023883a 	mov	r17,zero
   42a24:	002f883a 	mov	r23,zero
   42a28:	d9400017 	ldw	r5,0(sp)
   42a2c:	003f9a06 	br	42898 <__alt_data_end+0xfffc4098>
   42a30:	04400304 	movi	r17,12
   42a34:	05c000c4 	movi	r23,3
   42a38:	003f9706 	br	42898 <__alt_data_end+0xfffc4098>
   42a3c:	9809883a 	mov	r4,r19
   42a40:	d9800015 	stw	r6,0(sp)
   42a44:	00453a40 	call	453a4 <__clzsi2>
   42a48:	10fffec4 	addi	r3,r2,-5
   42a4c:	10801d84 	addi	r2,r2,118
   42a50:	98e6983a 	sll	r19,r19,r3
   42a54:	0085c83a 	sub	r2,zero,r2
   42a58:	0007883a 	mov	r3,zero
   42a5c:	d9800017 	ldw	r6,0(sp)
   42a60:	003f9b06 	br	428d0 <__alt_data_end+0xfffc40d0>
   42a64:	01002034 	movhi	r4,128
   42a68:	0029883a 	mov	r20,zero
   42a6c:	213fffc4 	addi	r4,r4,-1
   42a70:	00ffffc4 	movi	r3,-1
   42a74:	003fc006 	br	42978 <__alt_data_end+0xfffc4178>
   42a78:	9027883a 	mov	r19,r18
   42a7c:	b807883a 	mov	r3,r23
   42a80:	003fb406 	br	42954 <__alt_data_end+0xfffc4154>
   42a84:	9027883a 	mov	r19,r18
   42a88:	e02b883a 	mov	r21,fp
   42a8c:	b807883a 	mov	r3,r23
   42a90:	003fb006 	br	42954 <__alt_data_end+0xfffc4154>
   42a94:	9004d43a 	srli	r2,r18,16
   42a98:	9810d43a 	srli	r8,r19,16
   42a9c:	94bfffcc 	andi	r18,r18,65535
   42aa0:	993fffcc 	andi	r4,r19,65535
   42aa4:	910d383a 	mul	r6,r18,r4
   42aa8:	20a7383a 	mul	r19,r4,r2
   42aac:	9225383a 	mul	r18,r18,r8
   42ab0:	3006d43a 	srli	r3,r6,16
   42ab4:	1211383a 	mul	r8,r2,r8
   42ab8:	94e5883a 	add	r18,r18,r19
   42abc:	1c87883a 	add	r3,r3,r18
   42ac0:	1cc0022e 	bgeu	r3,r19,42acc <__mulsf3+0x2a0>
   42ac4:	00800074 	movhi	r2,1
   42ac8:	4091883a 	add	r8,r8,r2
   42acc:	1804943a 	slli	r2,r3,16
   42ad0:	31bfffcc 	andi	r6,r6,65535
   42ad4:	1806d43a 	srli	r3,r3,16
   42ad8:	1185883a 	add	r2,r2,r6
   42adc:	102691ba 	slli	r19,r2,6
   42ae0:	1a07883a 	add	r3,r3,r8
   42ae4:	1004d6ba 	srli	r2,r2,26
   42ae8:	180891ba 	slli	r4,r3,6
   42aec:	9826c03a 	cmpne	r19,r19,zero
   42af0:	9884b03a 	or	r2,r19,r2
   42af4:	1126b03a 	or	r19,r2,r4
   42af8:	9882002c 	andhi	r2,r19,2048
   42afc:	10000426 	beq	r2,zero,42b10 <__mulsf3+0x2e4>
   42b00:	9804d07a 	srli	r2,r19,1
   42b04:	9900004c 	andi	r4,r19,1
   42b08:	3821883a 	mov	r16,r7
   42b0c:	1126b03a 	or	r19,r2,r4
   42b10:	80c01fc4 	addi	r3,r16,127
   42b14:	00c0210e 	bge	zero,r3,42b9c <__mulsf3+0x370>
   42b18:	988001cc 	andi	r2,r19,7
   42b1c:	10000426 	beq	r2,zero,42b30 <__mulsf3+0x304>
   42b20:	988003cc 	andi	r2,r19,15
   42b24:	01000104 	movi	r4,4
   42b28:	11000126 	beq	r2,r4,42b30 <__mulsf3+0x304>
   42b2c:	9927883a 	add	r19,r19,r4
   42b30:	9882002c 	andhi	r2,r19,2048
   42b34:	10000426 	beq	r2,zero,42b48 <__mulsf3+0x31c>
   42b38:	00be0034 	movhi	r2,63488
   42b3c:	10bfffc4 	addi	r2,r2,-1
   42b40:	80c02004 	addi	r3,r16,128
   42b44:	98a6703a 	and	r19,r19,r2
   42b48:	00803f84 	movi	r2,254
   42b4c:	10ffa916 	blt	r2,r3,429f4 <__alt_data_end+0xfffc41f4>
   42b50:	980891ba 	slli	r4,r19,6
   42b54:	a829883a 	mov	r20,r21
   42b58:	2008d27a 	srli	r4,r4,9
   42b5c:	003f8606 	br	42978 <__alt_data_end+0xfffc4178>
   42b60:	9080102c 	andhi	r2,r18,64
   42b64:	10000826 	beq	r2,zero,42b88 <__mulsf3+0x35c>
   42b68:	9880102c 	andhi	r2,r19,64
   42b6c:	1000061e 	bne	r2,zero,42b88 <__mulsf3+0x35c>
   42b70:	00802034 	movhi	r2,128
   42b74:	99001034 	orhi	r4,r19,64
   42b78:	10bfffc4 	addi	r2,r2,-1
   42b7c:	b029883a 	mov	r20,r22
   42b80:	2088703a 	and	r4,r4,r2
   42b84:	003fba06 	br	42a70 <__alt_data_end+0xfffc4270>
   42b88:	00802034 	movhi	r2,128
   42b8c:	91001034 	orhi	r4,r18,64
   42b90:	10bfffc4 	addi	r2,r2,-1
   42b94:	2088703a 	and	r4,r4,r2
   42b98:	003fb506 	br	42a70 <__alt_data_end+0xfffc4270>
   42b9c:	00800044 	movi	r2,1
   42ba0:	10c7c83a 	sub	r3,r2,r3
   42ba4:	008006c4 	movi	r2,27
   42ba8:	10ff7016 	blt	r2,r3,4296c <__alt_data_end+0xfffc416c>
   42bac:	00800804 	movi	r2,32
   42bb0:	10c5c83a 	sub	r2,r2,r3
   42bb4:	9884983a 	sll	r2,r19,r2
   42bb8:	98c6d83a 	srl	r3,r19,r3
   42bbc:	1004c03a 	cmpne	r2,r2,zero
   42bc0:	1884b03a 	or	r2,r3,r2
   42bc4:	10c001cc 	andi	r3,r2,7
   42bc8:	18000426 	beq	r3,zero,42bdc <__mulsf3+0x3b0>
   42bcc:	10c003cc 	andi	r3,r2,15
   42bd0:	01000104 	movi	r4,4
   42bd4:	19000126 	beq	r3,r4,42bdc <__mulsf3+0x3b0>
   42bd8:	1105883a 	add	r2,r2,r4
   42bdc:	10c1002c 	andhi	r3,r2,1024
   42be0:	18000626 	beq	r3,zero,42bfc <__mulsf3+0x3d0>
   42be4:	a829883a 	mov	r20,r21
   42be8:	00c00044 	movi	r3,1
   42bec:	0009883a 	mov	r4,zero
   42bf0:	003f6106 	br	42978 <__alt_data_end+0xfffc4178>
   42bf4:	3821883a 	mov	r16,r7
   42bf8:	003fc506 	br	42b10 <__alt_data_end+0xfffc4310>
   42bfc:	100491ba 	slli	r2,r2,6
   42c00:	a829883a 	mov	r20,r21
   42c04:	0007883a 	mov	r3,zero
   42c08:	1008d27a 	srli	r4,r2,9
   42c0c:	003f5a06 	br	42978 <__alt_data_end+0xfffc4178>
   42c10:	00802034 	movhi	r2,128
   42c14:	99001034 	orhi	r4,r19,64
   42c18:	10bfffc4 	addi	r2,r2,-1
   42c1c:	a829883a 	mov	r20,r21
   42c20:	2088703a 	and	r4,r4,r2
   42c24:	003f9206 	br	42a70 <__alt_data_end+0xfffc4270>

00042c28 <__floatunsisf>:
   42c28:	defffe04 	addi	sp,sp,-8
   42c2c:	dfc00115 	stw	ra,4(sp)
   42c30:	dc000015 	stw	r16,0(sp)
   42c34:	20002c26 	beq	r4,zero,42ce8 <__floatunsisf+0xc0>
   42c38:	2021883a 	mov	r16,r4
   42c3c:	00453a40 	call	453a4 <__clzsi2>
   42c40:	00c02784 	movi	r3,158
   42c44:	1887c83a 	sub	r3,r3,r2
   42c48:	01002584 	movi	r4,150
   42c4c:	20c00f16 	blt	r4,r3,42c8c <__floatunsisf+0x64>
   42c50:	20c9c83a 	sub	r4,r4,r3
   42c54:	8108983a 	sll	r4,r16,r4
   42c58:	00802034 	movhi	r2,128
   42c5c:	10bfffc4 	addi	r2,r2,-1
   42c60:	2088703a 	and	r4,r4,r2
   42c64:	18803fcc 	andi	r2,r3,255
   42c68:	100695fa 	slli	r3,r2,23
   42c6c:	00802034 	movhi	r2,128
   42c70:	10bfffc4 	addi	r2,r2,-1
   42c74:	2084703a 	and	r2,r4,r2
   42c78:	10c4b03a 	or	r2,r2,r3
   42c7c:	dfc00117 	ldw	ra,4(sp)
   42c80:	dc000017 	ldw	r16,0(sp)
   42c84:	dec00204 	addi	sp,sp,8
   42c88:	f800283a 	ret
   42c8c:	01002644 	movi	r4,153
   42c90:	20c01816 	blt	r4,r3,42cf4 <__floatunsisf+0xcc>
   42c94:	20c9c83a 	sub	r4,r4,r3
   42c98:	8108983a 	sll	r4,r16,r4
   42c9c:	017f0034 	movhi	r5,64512
   42ca0:	297fffc4 	addi	r5,r5,-1
   42ca4:	218001cc 	andi	r6,r4,7
   42ca8:	214a703a 	and	r5,r4,r5
   42cac:	30000426 	beq	r6,zero,42cc0 <__floatunsisf+0x98>
   42cb0:	210003cc 	andi	r4,r4,15
   42cb4:	01800104 	movi	r6,4
   42cb8:	21800126 	beq	r4,r6,42cc0 <__floatunsisf+0x98>
   42cbc:	298b883a 	add	r5,r5,r6
   42cc0:	2901002c 	andhi	r4,r5,1024
   42cc4:	20000526 	beq	r4,zero,42cdc <__floatunsisf+0xb4>
   42cc8:	00c027c4 	movi	r3,159
   42ccc:	1887c83a 	sub	r3,r3,r2
   42cd0:	00bf0034 	movhi	r2,64512
   42cd4:	10bfffc4 	addi	r2,r2,-1
   42cd8:	288a703a 	and	r5,r5,r2
   42cdc:	280891ba 	slli	r4,r5,6
   42ce0:	2008d27a 	srli	r4,r4,9
   42ce4:	003fdf06 	br	42c64 <__alt_data_end+0xfffc4464>
   42ce8:	0007883a 	mov	r3,zero
   42cec:	0009883a 	mov	r4,zero
   42cf0:	003fdc06 	br	42c64 <__alt_data_end+0xfffc4464>
   42cf4:	01402e44 	movi	r5,185
   42cf8:	28cbc83a 	sub	r5,r5,r3
   42cfc:	01000144 	movi	r4,5
   42d00:	2089c83a 	sub	r4,r4,r2
   42d04:	814a983a 	sll	r5,r16,r5
   42d08:	8108d83a 	srl	r4,r16,r4
   42d0c:	2820c03a 	cmpne	r16,r5,zero
   42d10:	2408b03a 	or	r4,r4,r16
   42d14:	003fe106 	br	42c9c <__alt_data_end+0xfffc449c>

00042d18 <__adddf3>:
   42d18:	02c00434 	movhi	r11,16
   42d1c:	5affffc4 	addi	r11,r11,-1
   42d20:	2806d7fa 	srli	r3,r5,31
   42d24:	2ad4703a 	and	r10,r5,r11
   42d28:	3ad2703a 	and	r9,r7,r11
   42d2c:	3804d53a 	srli	r2,r7,20
   42d30:	3018d77a 	srli	r12,r6,29
   42d34:	280ad53a 	srli	r5,r5,20
   42d38:	501490fa 	slli	r10,r10,3
   42d3c:	2010d77a 	srli	r8,r4,29
   42d40:	481290fa 	slli	r9,r9,3
   42d44:	380ed7fa 	srli	r7,r7,31
   42d48:	defffb04 	addi	sp,sp,-20
   42d4c:	dc800215 	stw	r18,8(sp)
   42d50:	dc400115 	stw	r17,4(sp)
   42d54:	dc000015 	stw	r16,0(sp)
   42d58:	dfc00415 	stw	ra,16(sp)
   42d5c:	dcc00315 	stw	r19,12(sp)
   42d60:	1c803fcc 	andi	r18,r3,255
   42d64:	2c01ffcc 	andi	r16,r5,2047
   42d68:	5210b03a 	or	r8,r10,r8
   42d6c:	202290fa 	slli	r17,r4,3
   42d70:	1081ffcc 	andi	r2,r2,2047
   42d74:	4b12b03a 	or	r9,r9,r12
   42d78:	300c90fa 	slli	r6,r6,3
   42d7c:	91c07526 	beq	r18,r7,42f54 <__adddf3+0x23c>
   42d80:	8087c83a 	sub	r3,r16,r2
   42d84:	00c0ab0e 	bge	zero,r3,43034 <__adddf3+0x31c>
   42d88:	10002a1e 	bne	r2,zero,42e34 <__adddf3+0x11c>
   42d8c:	4984b03a 	or	r2,r9,r6
   42d90:	1000961e 	bne	r2,zero,42fec <__adddf3+0x2d4>
   42d94:	888001cc 	andi	r2,r17,7
   42d98:	10000726 	beq	r2,zero,42db8 <__adddf3+0xa0>
   42d9c:	888003cc 	andi	r2,r17,15
   42da0:	00c00104 	movi	r3,4
   42da4:	10c00426 	beq	r2,r3,42db8 <__adddf3+0xa0>
   42da8:	88c7883a 	add	r3,r17,r3
   42dac:	1c63803a 	cmpltu	r17,r3,r17
   42db0:	4451883a 	add	r8,r8,r17
   42db4:	1823883a 	mov	r17,r3
   42db8:	4080202c 	andhi	r2,r8,128
   42dbc:	10005926 	beq	r2,zero,42f24 <__adddf3+0x20c>
   42dc0:	84000044 	addi	r16,r16,1
   42dc4:	0081ffc4 	movi	r2,2047
   42dc8:	8080ba26 	beq	r16,r2,430b4 <__adddf3+0x39c>
   42dcc:	00bfe034 	movhi	r2,65408
   42dd0:	10bfffc4 	addi	r2,r2,-1
   42dd4:	4090703a 	and	r8,r8,r2
   42dd8:	4004977a 	slli	r2,r8,29
   42ddc:	4010927a 	slli	r8,r8,9
   42de0:	8822d0fa 	srli	r17,r17,3
   42de4:	8401ffcc 	andi	r16,r16,2047
   42de8:	4010d33a 	srli	r8,r8,12
   42dec:	9007883a 	mov	r3,r18
   42df0:	1444b03a 	or	r2,r2,r17
   42df4:	8401ffcc 	andi	r16,r16,2047
   42df8:	8020953a 	slli	r16,r16,20
   42dfc:	18c03fcc 	andi	r3,r3,255
   42e00:	01000434 	movhi	r4,16
   42e04:	213fffc4 	addi	r4,r4,-1
   42e08:	180697fa 	slli	r3,r3,31
   42e0c:	4110703a 	and	r8,r8,r4
   42e10:	4410b03a 	or	r8,r8,r16
   42e14:	40c6b03a 	or	r3,r8,r3
   42e18:	dfc00417 	ldw	ra,16(sp)
   42e1c:	dcc00317 	ldw	r19,12(sp)
   42e20:	dc800217 	ldw	r18,8(sp)
   42e24:	dc400117 	ldw	r17,4(sp)
   42e28:	dc000017 	ldw	r16,0(sp)
   42e2c:	dec00504 	addi	sp,sp,20
   42e30:	f800283a 	ret
   42e34:	0081ffc4 	movi	r2,2047
   42e38:	80bfd626 	beq	r16,r2,42d94 <__alt_data_end+0xfffc4594>
   42e3c:	4a402034 	orhi	r9,r9,128
   42e40:	00800e04 	movi	r2,56
   42e44:	10c09f16 	blt	r2,r3,430c4 <__adddf3+0x3ac>
   42e48:	008007c4 	movi	r2,31
   42e4c:	10c0c216 	blt	r2,r3,43158 <__adddf3+0x440>
   42e50:	00800804 	movi	r2,32
   42e54:	10c5c83a 	sub	r2,r2,r3
   42e58:	488a983a 	sll	r5,r9,r2
   42e5c:	30c8d83a 	srl	r4,r6,r3
   42e60:	3084983a 	sll	r2,r6,r2
   42e64:	48c6d83a 	srl	r3,r9,r3
   42e68:	290cb03a 	or	r6,r5,r4
   42e6c:	1004c03a 	cmpne	r2,r2,zero
   42e70:	308cb03a 	or	r6,r6,r2
   42e74:	898dc83a 	sub	r6,r17,r6
   42e78:	89a3803a 	cmpltu	r17,r17,r6
   42e7c:	40d1c83a 	sub	r8,r8,r3
   42e80:	4451c83a 	sub	r8,r8,r17
   42e84:	3023883a 	mov	r17,r6
   42e88:	4080202c 	andhi	r2,r8,128
   42e8c:	10002326 	beq	r2,zero,42f1c <__adddf3+0x204>
   42e90:	04c02034 	movhi	r19,128
   42e94:	9cffffc4 	addi	r19,r19,-1
   42e98:	44e6703a 	and	r19,r8,r19
   42e9c:	98007626 	beq	r19,zero,43078 <__adddf3+0x360>
   42ea0:	9809883a 	mov	r4,r19
   42ea4:	00453a40 	call	453a4 <__clzsi2>
   42ea8:	10fffe04 	addi	r3,r2,-8
   42eac:	010007c4 	movi	r4,31
   42eb0:	20c07716 	blt	r4,r3,43090 <__adddf3+0x378>
   42eb4:	00800804 	movi	r2,32
   42eb8:	10c5c83a 	sub	r2,r2,r3
   42ebc:	8884d83a 	srl	r2,r17,r2
   42ec0:	98d0983a 	sll	r8,r19,r3
   42ec4:	88e2983a 	sll	r17,r17,r3
   42ec8:	1204b03a 	or	r2,r2,r8
   42ecc:	1c007416 	blt	r3,r16,430a0 <__adddf3+0x388>
   42ed0:	1c21c83a 	sub	r16,r3,r16
   42ed4:	82000044 	addi	r8,r16,1
   42ed8:	00c007c4 	movi	r3,31
   42edc:	1a009116 	blt	r3,r8,43124 <__adddf3+0x40c>
   42ee0:	00c00804 	movi	r3,32
   42ee4:	1a07c83a 	sub	r3,r3,r8
   42ee8:	8a08d83a 	srl	r4,r17,r8
   42eec:	88e2983a 	sll	r17,r17,r3
   42ef0:	10c6983a 	sll	r3,r2,r3
   42ef4:	1210d83a 	srl	r8,r2,r8
   42ef8:	8804c03a 	cmpne	r2,r17,zero
   42efc:	1906b03a 	or	r3,r3,r4
   42f00:	18a2b03a 	or	r17,r3,r2
   42f04:	0021883a 	mov	r16,zero
   42f08:	003fa206 	br	42d94 <__alt_data_end+0xfffc4594>
   42f0c:	1890b03a 	or	r8,r3,r2
   42f10:	40017d26 	beq	r8,zero,43508 <__adddf3+0x7f0>
   42f14:	1011883a 	mov	r8,r2
   42f18:	1823883a 	mov	r17,r3
   42f1c:	888001cc 	andi	r2,r17,7
   42f20:	103f9e1e 	bne	r2,zero,42d9c <__alt_data_end+0xfffc459c>
   42f24:	4004977a 	slli	r2,r8,29
   42f28:	8822d0fa 	srli	r17,r17,3
   42f2c:	4010d0fa 	srli	r8,r8,3
   42f30:	9007883a 	mov	r3,r18
   42f34:	1444b03a 	or	r2,r2,r17
   42f38:	0101ffc4 	movi	r4,2047
   42f3c:	81002426 	beq	r16,r4,42fd0 <__adddf3+0x2b8>
   42f40:	8120703a 	and	r16,r16,r4
   42f44:	01000434 	movhi	r4,16
   42f48:	213fffc4 	addi	r4,r4,-1
   42f4c:	4110703a 	and	r8,r8,r4
   42f50:	003fa806 	br	42df4 <__alt_data_end+0xfffc45f4>
   42f54:	8089c83a 	sub	r4,r16,r2
   42f58:	01005e0e 	bge	zero,r4,430d4 <__adddf3+0x3bc>
   42f5c:	10002b26 	beq	r2,zero,4300c <__adddf3+0x2f4>
   42f60:	0081ffc4 	movi	r2,2047
   42f64:	80bf8b26 	beq	r16,r2,42d94 <__alt_data_end+0xfffc4594>
   42f68:	4a402034 	orhi	r9,r9,128
   42f6c:	00800e04 	movi	r2,56
   42f70:	1100a40e 	bge	r2,r4,43204 <__adddf3+0x4ec>
   42f74:	498cb03a 	or	r6,r9,r6
   42f78:	300ac03a 	cmpne	r5,r6,zero
   42f7c:	0013883a 	mov	r9,zero
   42f80:	2c4b883a 	add	r5,r5,r17
   42f84:	2c63803a 	cmpltu	r17,r5,r17
   42f88:	4a11883a 	add	r8,r9,r8
   42f8c:	8a11883a 	add	r8,r17,r8
   42f90:	2823883a 	mov	r17,r5
   42f94:	4080202c 	andhi	r2,r8,128
   42f98:	103fe026 	beq	r2,zero,42f1c <__alt_data_end+0xfffc471c>
   42f9c:	84000044 	addi	r16,r16,1
   42fa0:	0081ffc4 	movi	r2,2047
   42fa4:	8080d226 	beq	r16,r2,432f0 <__adddf3+0x5d8>
   42fa8:	00bfe034 	movhi	r2,65408
   42fac:	10bfffc4 	addi	r2,r2,-1
   42fb0:	4090703a 	and	r8,r8,r2
   42fb4:	880ad07a 	srli	r5,r17,1
   42fb8:	400897fa 	slli	r4,r8,31
   42fbc:	88c0004c 	andi	r3,r17,1
   42fc0:	28e2b03a 	or	r17,r5,r3
   42fc4:	4010d07a 	srli	r8,r8,1
   42fc8:	2462b03a 	or	r17,r4,r17
   42fcc:	003f7106 	br	42d94 <__alt_data_end+0xfffc4594>
   42fd0:	4088b03a 	or	r4,r8,r2
   42fd4:	20014526 	beq	r4,zero,434ec <__adddf3+0x7d4>
   42fd8:	01000434 	movhi	r4,16
   42fdc:	42000234 	orhi	r8,r8,8
   42fe0:	213fffc4 	addi	r4,r4,-1
   42fe4:	4110703a 	and	r8,r8,r4
   42fe8:	003f8206 	br	42df4 <__alt_data_end+0xfffc45f4>
   42fec:	18ffffc4 	addi	r3,r3,-1
   42ff0:	1800491e 	bne	r3,zero,43118 <__adddf3+0x400>
   42ff4:	898bc83a 	sub	r5,r17,r6
   42ff8:	8963803a 	cmpltu	r17,r17,r5
   42ffc:	4251c83a 	sub	r8,r8,r9
   43000:	4451c83a 	sub	r8,r8,r17
   43004:	2823883a 	mov	r17,r5
   43008:	003f9f06 	br	42e88 <__alt_data_end+0xfffc4688>
   4300c:	4984b03a 	or	r2,r9,r6
   43010:	103f6026 	beq	r2,zero,42d94 <__alt_data_end+0xfffc4594>
   43014:	213fffc4 	addi	r4,r4,-1
   43018:	2000931e 	bne	r4,zero,43268 <__adddf3+0x550>
   4301c:	898d883a 	add	r6,r17,r6
   43020:	3463803a 	cmpltu	r17,r6,r17
   43024:	4251883a 	add	r8,r8,r9
   43028:	8a11883a 	add	r8,r17,r8
   4302c:	3023883a 	mov	r17,r6
   43030:	003fd806 	br	42f94 <__alt_data_end+0xfffc4794>
   43034:	1800541e 	bne	r3,zero,43188 <__adddf3+0x470>
   43038:	80800044 	addi	r2,r16,1
   4303c:	1081ffcc 	andi	r2,r2,2047
   43040:	00c00044 	movi	r3,1
   43044:	1880a00e 	bge	r3,r2,432c8 <__adddf3+0x5b0>
   43048:	8989c83a 	sub	r4,r17,r6
   4304c:	8905803a 	cmpltu	r2,r17,r4
   43050:	4267c83a 	sub	r19,r8,r9
   43054:	98a7c83a 	sub	r19,r19,r2
   43058:	9880202c 	andhi	r2,r19,128
   4305c:	10006326 	beq	r2,zero,431ec <__adddf3+0x4d4>
   43060:	3463c83a 	sub	r17,r6,r17
   43064:	4a07c83a 	sub	r3,r9,r8
   43068:	344d803a 	cmpltu	r6,r6,r17
   4306c:	19a7c83a 	sub	r19,r3,r6
   43070:	3825883a 	mov	r18,r7
   43074:	983f8a1e 	bne	r19,zero,42ea0 <__alt_data_end+0xfffc46a0>
   43078:	8809883a 	mov	r4,r17
   4307c:	00453a40 	call	453a4 <__clzsi2>
   43080:	10800804 	addi	r2,r2,32
   43084:	10fffe04 	addi	r3,r2,-8
   43088:	010007c4 	movi	r4,31
   4308c:	20ff890e 	bge	r4,r3,42eb4 <__alt_data_end+0xfffc46b4>
   43090:	10bff604 	addi	r2,r2,-40
   43094:	8884983a 	sll	r2,r17,r2
   43098:	0023883a 	mov	r17,zero
   4309c:	1c3f8c0e 	bge	r3,r16,42ed0 <__alt_data_end+0xfffc46d0>
   430a0:	023fe034 	movhi	r8,65408
   430a4:	423fffc4 	addi	r8,r8,-1
   430a8:	80e1c83a 	sub	r16,r16,r3
   430ac:	1210703a 	and	r8,r2,r8
   430b0:	003f3806 	br	42d94 <__alt_data_end+0xfffc4594>
   430b4:	9007883a 	mov	r3,r18
   430b8:	0011883a 	mov	r8,zero
   430bc:	0005883a 	mov	r2,zero
   430c0:	003f4c06 	br	42df4 <__alt_data_end+0xfffc45f4>
   430c4:	498cb03a 	or	r6,r9,r6
   430c8:	300cc03a 	cmpne	r6,r6,zero
   430cc:	0007883a 	mov	r3,zero
   430d0:	003f6806 	br	42e74 <__alt_data_end+0xfffc4674>
   430d4:	20009c1e 	bne	r4,zero,43348 <__adddf3+0x630>
   430d8:	80800044 	addi	r2,r16,1
   430dc:	1141ffcc 	andi	r5,r2,2047
   430e0:	01000044 	movi	r4,1
   430e4:	2140670e 	bge	r4,r5,43284 <__adddf3+0x56c>
   430e8:	0101ffc4 	movi	r4,2047
   430ec:	11007f26 	beq	r2,r4,432ec <__adddf3+0x5d4>
   430f0:	898d883a 	add	r6,r17,r6
   430f4:	4247883a 	add	r3,r8,r9
   430f8:	3451803a 	cmpltu	r8,r6,r17
   430fc:	40d1883a 	add	r8,r8,r3
   43100:	402297fa 	slli	r17,r8,31
   43104:	300cd07a 	srli	r6,r6,1
   43108:	4010d07a 	srli	r8,r8,1
   4310c:	1021883a 	mov	r16,r2
   43110:	89a2b03a 	or	r17,r17,r6
   43114:	003f1f06 	br	42d94 <__alt_data_end+0xfffc4594>
   43118:	0081ffc4 	movi	r2,2047
   4311c:	80bf481e 	bne	r16,r2,42e40 <__alt_data_end+0xfffc4640>
   43120:	003f1c06 	br	42d94 <__alt_data_end+0xfffc4594>
   43124:	843ff844 	addi	r16,r16,-31
   43128:	01000804 	movi	r4,32
   4312c:	1406d83a 	srl	r3,r2,r16
   43130:	41005026 	beq	r8,r4,43274 <__adddf3+0x55c>
   43134:	01001004 	movi	r4,64
   43138:	2211c83a 	sub	r8,r4,r8
   4313c:	1204983a 	sll	r2,r2,r8
   43140:	88a2b03a 	or	r17,r17,r2
   43144:	8822c03a 	cmpne	r17,r17,zero
   43148:	1c62b03a 	or	r17,r3,r17
   4314c:	0011883a 	mov	r8,zero
   43150:	0021883a 	mov	r16,zero
   43154:	003f7106 	br	42f1c <__alt_data_end+0xfffc471c>
   43158:	193ff804 	addi	r4,r3,-32
   4315c:	00800804 	movi	r2,32
   43160:	4908d83a 	srl	r4,r9,r4
   43164:	18804526 	beq	r3,r2,4327c <__adddf3+0x564>
   43168:	00801004 	movi	r2,64
   4316c:	10c5c83a 	sub	r2,r2,r3
   43170:	4886983a 	sll	r3,r9,r2
   43174:	198cb03a 	or	r6,r3,r6
   43178:	300cc03a 	cmpne	r6,r6,zero
   4317c:	218cb03a 	or	r6,r4,r6
   43180:	0007883a 	mov	r3,zero
   43184:	003f3b06 	br	42e74 <__alt_data_end+0xfffc4674>
   43188:	80002a26 	beq	r16,zero,43234 <__adddf3+0x51c>
   4318c:	0101ffc4 	movi	r4,2047
   43190:	11006826 	beq	r2,r4,43334 <__adddf3+0x61c>
   43194:	00c7c83a 	sub	r3,zero,r3
   43198:	42002034 	orhi	r8,r8,128
   4319c:	01000e04 	movi	r4,56
   431a0:	20c07c16 	blt	r4,r3,43394 <__adddf3+0x67c>
   431a4:	010007c4 	movi	r4,31
   431a8:	20c0da16 	blt	r4,r3,43514 <__adddf3+0x7fc>
   431ac:	01000804 	movi	r4,32
   431b0:	20c9c83a 	sub	r4,r4,r3
   431b4:	4114983a 	sll	r10,r8,r4
   431b8:	88cad83a 	srl	r5,r17,r3
   431bc:	8908983a 	sll	r4,r17,r4
   431c0:	40c6d83a 	srl	r3,r8,r3
   431c4:	5162b03a 	or	r17,r10,r5
   431c8:	2008c03a 	cmpne	r4,r4,zero
   431cc:	8922b03a 	or	r17,r17,r4
   431d0:	3463c83a 	sub	r17,r6,r17
   431d4:	48c7c83a 	sub	r3,r9,r3
   431d8:	344d803a 	cmpltu	r6,r6,r17
   431dc:	1991c83a 	sub	r8,r3,r6
   431e0:	1021883a 	mov	r16,r2
   431e4:	3825883a 	mov	r18,r7
   431e8:	003f2706 	br	42e88 <__alt_data_end+0xfffc4688>
   431ec:	24d0b03a 	or	r8,r4,r19
   431f0:	40001b1e 	bne	r8,zero,43260 <__adddf3+0x548>
   431f4:	0005883a 	mov	r2,zero
   431f8:	0007883a 	mov	r3,zero
   431fc:	0021883a 	mov	r16,zero
   43200:	003f4d06 	br	42f38 <__alt_data_end+0xfffc4738>
   43204:	008007c4 	movi	r2,31
   43208:	11003c16 	blt	r2,r4,432fc <__adddf3+0x5e4>
   4320c:	00800804 	movi	r2,32
   43210:	1105c83a 	sub	r2,r2,r4
   43214:	488e983a 	sll	r7,r9,r2
   43218:	310ad83a 	srl	r5,r6,r4
   4321c:	3084983a 	sll	r2,r6,r2
   43220:	4912d83a 	srl	r9,r9,r4
   43224:	394ab03a 	or	r5,r7,r5
   43228:	1004c03a 	cmpne	r2,r2,zero
   4322c:	288ab03a 	or	r5,r5,r2
   43230:	003f5306 	br	42f80 <__alt_data_end+0xfffc4780>
   43234:	4448b03a 	or	r4,r8,r17
   43238:	20003e26 	beq	r4,zero,43334 <__adddf3+0x61c>
   4323c:	00c6303a 	nor	r3,zero,r3
   43240:	18003a1e 	bne	r3,zero,4332c <__adddf3+0x614>
   43244:	3463c83a 	sub	r17,r6,r17
   43248:	4a07c83a 	sub	r3,r9,r8
   4324c:	344d803a 	cmpltu	r6,r6,r17
   43250:	1991c83a 	sub	r8,r3,r6
   43254:	1021883a 	mov	r16,r2
   43258:	3825883a 	mov	r18,r7
   4325c:	003f0a06 	br	42e88 <__alt_data_end+0xfffc4688>
   43260:	2023883a 	mov	r17,r4
   43264:	003f0d06 	br	42e9c <__alt_data_end+0xfffc469c>
   43268:	0081ffc4 	movi	r2,2047
   4326c:	80bf3f1e 	bne	r16,r2,42f6c <__alt_data_end+0xfffc476c>
   43270:	003ec806 	br	42d94 <__alt_data_end+0xfffc4594>
   43274:	0005883a 	mov	r2,zero
   43278:	003fb106 	br	43140 <__alt_data_end+0xfffc4940>
   4327c:	0007883a 	mov	r3,zero
   43280:	003fbc06 	br	43174 <__alt_data_end+0xfffc4974>
   43284:	4444b03a 	or	r2,r8,r17
   43288:	8000871e 	bne	r16,zero,434a8 <__adddf3+0x790>
   4328c:	1000ba26 	beq	r2,zero,43578 <__adddf3+0x860>
   43290:	4984b03a 	or	r2,r9,r6
   43294:	103ebf26 	beq	r2,zero,42d94 <__alt_data_end+0xfffc4594>
   43298:	8985883a 	add	r2,r17,r6
   4329c:	4247883a 	add	r3,r8,r9
   432a0:	1451803a 	cmpltu	r8,r2,r17
   432a4:	40d1883a 	add	r8,r8,r3
   432a8:	40c0202c 	andhi	r3,r8,128
   432ac:	1023883a 	mov	r17,r2
   432b0:	183f1a26 	beq	r3,zero,42f1c <__alt_data_end+0xfffc471c>
   432b4:	00bfe034 	movhi	r2,65408
   432b8:	10bfffc4 	addi	r2,r2,-1
   432bc:	2021883a 	mov	r16,r4
   432c0:	4090703a 	and	r8,r8,r2
   432c4:	003eb306 	br	42d94 <__alt_data_end+0xfffc4594>
   432c8:	4444b03a 	or	r2,r8,r17
   432cc:	8000291e 	bne	r16,zero,43374 <__adddf3+0x65c>
   432d0:	10004b1e 	bne	r2,zero,43400 <__adddf3+0x6e8>
   432d4:	4990b03a 	or	r8,r9,r6
   432d8:	40008b26 	beq	r8,zero,43508 <__adddf3+0x7f0>
   432dc:	4811883a 	mov	r8,r9
   432e0:	3023883a 	mov	r17,r6
   432e4:	3825883a 	mov	r18,r7
   432e8:	003eaa06 	br	42d94 <__alt_data_end+0xfffc4594>
   432ec:	1021883a 	mov	r16,r2
   432f0:	0011883a 	mov	r8,zero
   432f4:	0005883a 	mov	r2,zero
   432f8:	003f0f06 	br	42f38 <__alt_data_end+0xfffc4738>
   432fc:	217ff804 	addi	r5,r4,-32
   43300:	00800804 	movi	r2,32
   43304:	494ad83a 	srl	r5,r9,r5
   43308:	20807d26 	beq	r4,r2,43500 <__adddf3+0x7e8>
   4330c:	00801004 	movi	r2,64
   43310:	1109c83a 	sub	r4,r2,r4
   43314:	4912983a 	sll	r9,r9,r4
   43318:	498cb03a 	or	r6,r9,r6
   4331c:	300cc03a 	cmpne	r6,r6,zero
   43320:	298ab03a 	or	r5,r5,r6
   43324:	0013883a 	mov	r9,zero
   43328:	003f1506 	br	42f80 <__alt_data_end+0xfffc4780>
   4332c:	0101ffc4 	movi	r4,2047
   43330:	113f9a1e 	bne	r2,r4,4319c <__alt_data_end+0xfffc499c>
   43334:	4811883a 	mov	r8,r9
   43338:	3023883a 	mov	r17,r6
   4333c:	1021883a 	mov	r16,r2
   43340:	3825883a 	mov	r18,r7
   43344:	003e9306 	br	42d94 <__alt_data_end+0xfffc4594>
   43348:	8000161e 	bne	r16,zero,433a4 <__adddf3+0x68c>
   4334c:	444ab03a 	or	r5,r8,r17
   43350:	28005126 	beq	r5,zero,43498 <__adddf3+0x780>
   43354:	0108303a 	nor	r4,zero,r4
   43358:	20004d1e 	bne	r4,zero,43490 <__adddf3+0x778>
   4335c:	89a3883a 	add	r17,r17,r6
   43360:	4253883a 	add	r9,r8,r9
   43364:	898d803a 	cmpltu	r6,r17,r6
   43368:	3251883a 	add	r8,r6,r9
   4336c:	1021883a 	mov	r16,r2
   43370:	003f0806 	br	42f94 <__alt_data_end+0xfffc4794>
   43374:	1000301e 	bne	r2,zero,43438 <__adddf3+0x720>
   43378:	4984b03a 	or	r2,r9,r6
   4337c:	10007126 	beq	r2,zero,43544 <__adddf3+0x82c>
   43380:	4811883a 	mov	r8,r9
   43384:	3023883a 	mov	r17,r6
   43388:	3825883a 	mov	r18,r7
   4338c:	0401ffc4 	movi	r16,2047
   43390:	003e8006 	br	42d94 <__alt_data_end+0xfffc4594>
   43394:	4462b03a 	or	r17,r8,r17
   43398:	8822c03a 	cmpne	r17,r17,zero
   4339c:	0007883a 	mov	r3,zero
   433a0:	003f8b06 	br	431d0 <__alt_data_end+0xfffc49d0>
   433a4:	0141ffc4 	movi	r5,2047
   433a8:	11403b26 	beq	r2,r5,43498 <__adddf3+0x780>
   433ac:	0109c83a 	sub	r4,zero,r4
   433b0:	42002034 	orhi	r8,r8,128
   433b4:	01400e04 	movi	r5,56
   433b8:	29006716 	blt	r5,r4,43558 <__adddf3+0x840>
   433bc:	014007c4 	movi	r5,31
   433c0:	29007016 	blt	r5,r4,43584 <__adddf3+0x86c>
   433c4:	01400804 	movi	r5,32
   433c8:	290bc83a 	sub	r5,r5,r4
   433cc:	4154983a 	sll	r10,r8,r5
   433d0:	890ed83a 	srl	r7,r17,r4
   433d4:	894a983a 	sll	r5,r17,r5
   433d8:	4108d83a 	srl	r4,r8,r4
   433dc:	51e2b03a 	or	r17,r10,r7
   433e0:	280ac03a 	cmpne	r5,r5,zero
   433e4:	8962b03a 	or	r17,r17,r5
   433e8:	89a3883a 	add	r17,r17,r6
   433ec:	2253883a 	add	r9,r4,r9
   433f0:	898d803a 	cmpltu	r6,r17,r6
   433f4:	3251883a 	add	r8,r6,r9
   433f8:	1021883a 	mov	r16,r2
   433fc:	003ee506 	br	42f94 <__alt_data_end+0xfffc4794>
   43400:	4984b03a 	or	r2,r9,r6
   43404:	103e6326 	beq	r2,zero,42d94 <__alt_data_end+0xfffc4594>
   43408:	8987c83a 	sub	r3,r17,r6
   4340c:	88c9803a 	cmpltu	r4,r17,r3
   43410:	4245c83a 	sub	r2,r8,r9
   43414:	1105c83a 	sub	r2,r2,r4
   43418:	1100202c 	andhi	r4,r2,128
   4341c:	203ebb26 	beq	r4,zero,42f0c <__alt_data_end+0xfffc470c>
   43420:	3463c83a 	sub	r17,r6,r17
   43424:	4a07c83a 	sub	r3,r9,r8
   43428:	344d803a 	cmpltu	r6,r6,r17
   4342c:	1991c83a 	sub	r8,r3,r6
   43430:	3825883a 	mov	r18,r7
   43434:	003e5706 	br	42d94 <__alt_data_end+0xfffc4594>
   43438:	4984b03a 	or	r2,r9,r6
   4343c:	10002e26 	beq	r2,zero,434f8 <__adddf3+0x7e0>
   43440:	4004d0fa 	srli	r2,r8,3
   43444:	8822d0fa 	srli	r17,r17,3
   43448:	4010977a 	slli	r8,r8,29
   4344c:	10c0022c 	andhi	r3,r2,8
   43450:	4462b03a 	or	r17,r8,r17
   43454:	18000826 	beq	r3,zero,43478 <__adddf3+0x760>
   43458:	4808d0fa 	srli	r4,r9,3
   4345c:	20c0022c 	andhi	r3,r4,8
   43460:	1800051e 	bne	r3,zero,43478 <__adddf3+0x760>
   43464:	300cd0fa 	srli	r6,r6,3
   43468:	4806977a 	slli	r3,r9,29
   4346c:	2005883a 	mov	r2,r4
   43470:	3825883a 	mov	r18,r7
   43474:	19a2b03a 	or	r17,r3,r6
   43478:	8810d77a 	srli	r8,r17,29
   4347c:	100490fa 	slli	r2,r2,3
   43480:	882290fa 	slli	r17,r17,3
   43484:	0401ffc4 	movi	r16,2047
   43488:	4090b03a 	or	r8,r8,r2
   4348c:	003e4106 	br	42d94 <__alt_data_end+0xfffc4594>
   43490:	0141ffc4 	movi	r5,2047
   43494:	117fc71e 	bne	r2,r5,433b4 <__alt_data_end+0xfffc4bb4>
   43498:	4811883a 	mov	r8,r9
   4349c:	3023883a 	mov	r17,r6
   434a0:	1021883a 	mov	r16,r2
   434a4:	003e3b06 	br	42d94 <__alt_data_end+0xfffc4594>
   434a8:	10002f26 	beq	r2,zero,43568 <__adddf3+0x850>
   434ac:	4984b03a 	or	r2,r9,r6
   434b0:	10001126 	beq	r2,zero,434f8 <__adddf3+0x7e0>
   434b4:	4004d0fa 	srli	r2,r8,3
   434b8:	8822d0fa 	srli	r17,r17,3
   434bc:	4010977a 	slli	r8,r8,29
   434c0:	10c0022c 	andhi	r3,r2,8
   434c4:	4462b03a 	or	r17,r8,r17
   434c8:	183feb26 	beq	r3,zero,43478 <__alt_data_end+0xfffc4c78>
   434cc:	4808d0fa 	srli	r4,r9,3
   434d0:	20c0022c 	andhi	r3,r4,8
   434d4:	183fe81e 	bne	r3,zero,43478 <__alt_data_end+0xfffc4c78>
   434d8:	300cd0fa 	srli	r6,r6,3
   434dc:	4806977a 	slli	r3,r9,29
   434e0:	2005883a 	mov	r2,r4
   434e4:	19a2b03a 	or	r17,r3,r6
   434e8:	003fe306 	br	43478 <__alt_data_end+0xfffc4c78>
   434ec:	0011883a 	mov	r8,zero
   434f0:	0005883a 	mov	r2,zero
   434f4:	003e3f06 	br	42df4 <__alt_data_end+0xfffc45f4>
   434f8:	0401ffc4 	movi	r16,2047
   434fc:	003e2506 	br	42d94 <__alt_data_end+0xfffc4594>
   43500:	0013883a 	mov	r9,zero
   43504:	003f8406 	br	43318 <__alt_data_end+0xfffc4b18>
   43508:	0005883a 	mov	r2,zero
   4350c:	0007883a 	mov	r3,zero
   43510:	003e8906 	br	42f38 <__alt_data_end+0xfffc4738>
   43514:	197ff804 	addi	r5,r3,-32
   43518:	01000804 	movi	r4,32
   4351c:	414ad83a 	srl	r5,r8,r5
   43520:	19002426 	beq	r3,r4,435b4 <__adddf3+0x89c>
   43524:	01001004 	movi	r4,64
   43528:	20c7c83a 	sub	r3,r4,r3
   4352c:	40c6983a 	sll	r3,r8,r3
   43530:	1c46b03a 	or	r3,r3,r17
   43534:	1806c03a 	cmpne	r3,r3,zero
   43538:	28e2b03a 	or	r17,r5,r3
   4353c:	0007883a 	mov	r3,zero
   43540:	003f2306 	br	431d0 <__alt_data_end+0xfffc49d0>
   43544:	0007883a 	mov	r3,zero
   43548:	5811883a 	mov	r8,r11
   4354c:	00bfffc4 	movi	r2,-1
   43550:	0401ffc4 	movi	r16,2047
   43554:	003e7806 	br	42f38 <__alt_data_end+0xfffc4738>
   43558:	4462b03a 	or	r17,r8,r17
   4355c:	8822c03a 	cmpne	r17,r17,zero
   43560:	0009883a 	mov	r4,zero
   43564:	003fa006 	br	433e8 <__alt_data_end+0xfffc4be8>
   43568:	4811883a 	mov	r8,r9
   4356c:	3023883a 	mov	r17,r6
   43570:	0401ffc4 	movi	r16,2047
   43574:	003e0706 	br	42d94 <__alt_data_end+0xfffc4594>
   43578:	4811883a 	mov	r8,r9
   4357c:	3023883a 	mov	r17,r6
   43580:	003e0406 	br	42d94 <__alt_data_end+0xfffc4594>
   43584:	21fff804 	addi	r7,r4,-32
   43588:	01400804 	movi	r5,32
   4358c:	41ced83a 	srl	r7,r8,r7
   43590:	21400a26 	beq	r4,r5,435bc <__adddf3+0x8a4>
   43594:	01401004 	movi	r5,64
   43598:	2909c83a 	sub	r4,r5,r4
   4359c:	4108983a 	sll	r4,r8,r4
   435a0:	2448b03a 	or	r4,r4,r17
   435a4:	2008c03a 	cmpne	r4,r4,zero
   435a8:	3922b03a 	or	r17,r7,r4
   435ac:	0009883a 	mov	r4,zero
   435b0:	003f8d06 	br	433e8 <__alt_data_end+0xfffc4be8>
   435b4:	0007883a 	mov	r3,zero
   435b8:	003fdd06 	br	43530 <__alt_data_end+0xfffc4d30>
   435bc:	0009883a 	mov	r4,zero
   435c0:	003ff706 	br	435a0 <__alt_data_end+0xfffc4da0>

000435c4 <__divdf3>:
   435c4:	defff204 	addi	sp,sp,-56
   435c8:	dd400915 	stw	r21,36(sp)
   435cc:	282ad53a 	srli	r21,r5,20
   435d0:	dd000815 	stw	r20,32(sp)
   435d4:	2828d7fa 	srli	r20,r5,31
   435d8:	dc000415 	stw	r16,16(sp)
   435dc:	04000434 	movhi	r16,16
   435e0:	df000c15 	stw	fp,48(sp)
   435e4:	843fffc4 	addi	r16,r16,-1
   435e8:	dfc00d15 	stw	ra,52(sp)
   435ec:	ddc00b15 	stw	r23,44(sp)
   435f0:	dd800a15 	stw	r22,40(sp)
   435f4:	dcc00715 	stw	r19,28(sp)
   435f8:	dc800615 	stw	r18,24(sp)
   435fc:	dc400515 	stw	r17,20(sp)
   43600:	ad41ffcc 	andi	r21,r21,2047
   43604:	2c20703a 	and	r16,r5,r16
   43608:	a7003fcc 	andi	fp,r20,255
   4360c:	a8006126 	beq	r21,zero,43794 <__divdf3+0x1d0>
   43610:	0081ffc4 	movi	r2,2047
   43614:	2025883a 	mov	r18,r4
   43618:	a8803726 	beq	r21,r2,436f8 <__divdf3+0x134>
   4361c:	80800434 	orhi	r2,r16,16
   43620:	100490fa 	slli	r2,r2,3
   43624:	2020d77a 	srli	r16,r4,29
   43628:	202490fa 	slli	r18,r4,3
   4362c:	ad7f0044 	addi	r21,r21,-1023
   43630:	80a0b03a 	or	r16,r16,r2
   43634:	0027883a 	mov	r19,zero
   43638:	0013883a 	mov	r9,zero
   4363c:	3804d53a 	srli	r2,r7,20
   43640:	382cd7fa 	srli	r22,r7,31
   43644:	04400434 	movhi	r17,16
   43648:	8c7fffc4 	addi	r17,r17,-1
   4364c:	1081ffcc 	andi	r2,r2,2047
   43650:	3011883a 	mov	r8,r6
   43654:	3c62703a 	and	r17,r7,r17
   43658:	b5c03fcc 	andi	r23,r22,255
   4365c:	10006c26 	beq	r2,zero,43810 <__divdf3+0x24c>
   43660:	00c1ffc4 	movi	r3,2047
   43664:	10c06426 	beq	r2,r3,437f8 <__divdf3+0x234>
   43668:	88c00434 	orhi	r3,r17,16
   4366c:	180690fa 	slli	r3,r3,3
   43670:	3022d77a 	srli	r17,r6,29
   43674:	301090fa 	slli	r8,r6,3
   43678:	10bf0044 	addi	r2,r2,-1023
   4367c:	88e2b03a 	or	r17,r17,r3
   43680:	000f883a 	mov	r7,zero
   43684:	a58cf03a 	xor	r6,r20,r22
   43688:	3cc8b03a 	or	r4,r7,r19
   4368c:	a8abc83a 	sub	r21,r21,r2
   43690:	008003c4 	movi	r2,15
   43694:	3007883a 	mov	r3,r6
   43698:	34c03fcc 	andi	r19,r6,255
   4369c:	11009036 	bltu	r2,r4,438e0 <__divdf3+0x31c>
   436a0:	200890ba 	slli	r4,r4,2
   436a4:	00800134 	movhi	r2,4
   436a8:	108dae04 	addi	r2,r2,14008
   436ac:	2089883a 	add	r4,r4,r2
   436b0:	20800017 	ldw	r2,0(r4)
   436b4:	1000683a 	jmp	r2
   436b8:	000438e0 	cmpeqi	zero,zero,4323
   436bc:	00043730 	cmpltui	zero,zero,4316
   436c0:	000438d0 	cmplti	zero,zero,4323
   436c4:	00043724 	muli	zero,zero,4316
   436c8:	000438d0 	cmplti	zero,zero,4323
   436cc:	000438a4 	muli	zero,zero,4322
   436d0:	000438d0 	cmplti	zero,zero,4323
   436d4:	00043724 	muli	zero,zero,4316
   436d8:	00043730 	cmpltui	zero,zero,4316
   436dc:	00043730 	cmpltui	zero,zero,4316
   436e0:	000438a4 	muli	zero,zero,4322
   436e4:	00043724 	muli	zero,zero,4316
   436e8:	00043714 	movui	zero,4316
   436ec:	00043714 	movui	zero,4316
   436f0:	00043714 	movui	zero,4316
   436f4:	00043bc4 	movi	zero,4335
   436f8:	2404b03a 	or	r2,r4,r16
   436fc:	1000661e 	bne	r2,zero,43898 <__divdf3+0x2d4>
   43700:	04c00204 	movi	r19,8
   43704:	0021883a 	mov	r16,zero
   43708:	0025883a 	mov	r18,zero
   4370c:	02400084 	movi	r9,2
   43710:	003fca06 	br	4363c <__alt_data_end+0xfffc4e3c>
   43714:	8023883a 	mov	r17,r16
   43718:	9011883a 	mov	r8,r18
   4371c:	e02f883a 	mov	r23,fp
   43720:	480f883a 	mov	r7,r9
   43724:	00800084 	movi	r2,2
   43728:	3881311e 	bne	r7,r2,43bf0 <__divdf3+0x62c>
   4372c:	b827883a 	mov	r19,r23
   43730:	98c0004c 	andi	r3,r19,1
   43734:	0081ffc4 	movi	r2,2047
   43738:	000b883a 	mov	r5,zero
   4373c:	0025883a 	mov	r18,zero
   43740:	1004953a 	slli	r2,r2,20
   43744:	18c03fcc 	andi	r3,r3,255
   43748:	04400434 	movhi	r17,16
   4374c:	8c7fffc4 	addi	r17,r17,-1
   43750:	180697fa 	slli	r3,r3,31
   43754:	2c4a703a 	and	r5,r5,r17
   43758:	288ab03a 	or	r5,r5,r2
   4375c:	28c6b03a 	or	r3,r5,r3
   43760:	9005883a 	mov	r2,r18
   43764:	dfc00d17 	ldw	ra,52(sp)
   43768:	df000c17 	ldw	fp,48(sp)
   4376c:	ddc00b17 	ldw	r23,44(sp)
   43770:	dd800a17 	ldw	r22,40(sp)
   43774:	dd400917 	ldw	r21,36(sp)
   43778:	dd000817 	ldw	r20,32(sp)
   4377c:	dcc00717 	ldw	r19,28(sp)
   43780:	dc800617 	ldw	r18,24(sp)
   43784:	dc400517 	ldw	r17,20(sp)
   43788:	dc000417 	ldw	r16,16(sp)
   4378c:	dec00e04 	addi	sp,sp,56
   43790:	f800283a 	ret
   43794:	2404b03a 	or	r2,r4,r16
   43798:	2027883a 	mov	r19,r4
   4379c:	10003926 	beq	r2,zero,43884 <__divdf3+0x2c0>
   437a0:	80012e26 	beq	r16,zero,43c5c <__divdf3+0x698>
   437a4:	8009883a 	mov	r4,r16
   437a8:	d9800315 	stw	r6,12(sp)
   437ac:	d9c00215 	stw	r7,8(sp)
   437b0:	00453a40 	call	453a4 <__clzsi2>
   437b4:	d9800317 	ldw	r6,12(sp)
   437b8:	d9c00217 	ldw	r7,8(sp)
   437bc:	113ffd44 	addi	r4,r2,-11
   437c0:	00c00704 	movi	r3,28
   437c4:	19012116 	blt	r3,r4,43c4c <__divdf3+0x688>
   437c8:	00c00744 	movi	r3,29
   437cc:	147ffe04 	addi	r17,r2,-8
   437d0:	1907c83a 	sub	r3,r3,r4
   437d4:	8460983a 	sll	r16,r16,r17
   437d8:	98c6d83a 	srl	r3,r19,r3
   437dc:	9c64983a 	sll	r18,r19,r17
   437e0:	1c20b03a 	or	r16,r3,r16
   437e4:	1080fcc4 	addi	r2,r2,1011
   437e8:	00abc83a 	sub	r21,zero,r2
   437ec:	0027883a 	mov	r19,zero
   437f0:	0013883a 	mov	r9,zero
   437f4:	003f9106 	br	4363c <__alt_data_end+0xfffc4e3c>
   437f8:	3446b03a 	or	r3,r6,r17
   437fc:	18001f1e 	bne	r3,zero,4387c <__divdf3+0x2b8>
   43800:	0023883a 	mov	r17,zero
   43804:	0011883a 	mov	r8,zero
   43808:	01c00084 	movi	r7,2
   4380c:	003f9d06 	br	43684 <__alt_data_end+0xfffc4e84>
   43810:	3446b03a 	or	r3,r6,r17
   43814:	18001526 	beq	r3,zero,4386c <__divdf3+0x2a8>
   43818:	88011b26 	beq	r17,zero,43c88 <__divdf3+0x6c4>
   4381c:	8809883a 	mov	r4,r17
   43820:	d9800315 	stw	r6,12(sp)
   43824:	da400115 	stw	r9,4(sp)
   43828:	00453a40 	call	453a4 <__clzsi2>
   4382c:	d9800317 	ldw	r6,12(sp)
   43830:	da400117 	ldw	r9,4(sp)
   43834:	113ffd44 	addi	r4,r2,-11
   43838:	00c00704 	movi	r3,28
   4383c:	19010e16 	blt	r3,r4,43c78 <__divdf3+0x6b4>
   43840:	00c00744 	movi	r3,29
   43844:	123ffe04 	addi	r8,r2,-8
   43848:	1907c83a 	sub	r3,r3,r4
   4384c:	8a22983a 	sll	r17,r17,r8
   43850:	30c6d83a 	srl	r3,r6,r3
   43854:	3210983a 	sll	r8,r6,r8
   43858:	1c62b03a 	or	r17,r3,r17
   4385c:	1080fcc4 	addi	r2,r2,1011
   43860:	0085c83a 	sub	r2,zero,r2
   43864:	000f883a 	mov	r7,zero
   43868:	003f8606 	br	43684 <__alt_data_end+0xfffc4e84>
   4386c:	0023883a 	mov	r17,zero
   43870:	0011883a 	mov	r8,zero
   43874:	01c00044 	movi	r7,1
   43878:	003f8206 	br	43684 <__alt_data_end+0xfffc4e84>
   4387c:	01c000c4 	movi	r7,3
   43880:	003f8006 	br	43684 <__alt_data_end+0xfffc4e84>
   43884:	04c00104 	movi	r19,4
   43888:	0021883a 	mov	r16,zero
   4388c:	0025883a 	mov	r18,zero
   43890:	02400044 	movi	r9,1
   43894:	003f6906 	br	4363c <__alt_data_end+0xfffc4e3c>
   43898:	04c00304 	movi	r19,12
   4389c:	024000c4 	movi	r9,3
   438a0:	003f6606 	br	4363c <__alt_data_end+0xfffc4e3c>
   438a4:	01400434 	movhi	r5,16
   438a8:	0007883a 	mov	r3,zero
   438ac:	297fffc4 	addi	r5,r5,-1
   438b0:	04bfffc4 	movi	r18,-1
   438b4:	0081ffc4 	movi	r2,2047
   438b8:	003fa106 	br	43740 <__alt_data_end+0xfffc4f40>
   438bc:	00c00044 	movi	r3,1
   438c0:	1887c83a 	sub	r3,r3,r2
   438c4:	01000e04 	movi	r4,56
   438c8:	20c1210e 	bge	r4,r3,43d50 <__divdf3+0x78c>
   438cc:	98c0004c 	andi	r3,r19,1
   438d0:	0005883a 	mov	r2,zero
   438d4:	000b883a 	mov	r5,zero
   438d8:	0025883a 	mov	r18,zero
   438dc:	003f9806 	br	43740 <__alt_data_end+0xfffc4f40>
   438e0:	8c00fd36 	bltu	r17,r16,43cd8 <__divdf3+0x714>
   438e4:	8440fb26 	beq	r16,r17,43cd4 <__divdf3+0x710>
   438e8:	8007883a 	mov	r3,r16
   438ec:	ad7fffc4 	addi	r21,r21,-1
   438f0:	0021883a 	mov	r16,zero
   438f4:	4004d63a 	srli	r2,r8,24
   438f8:	8822923a 	slli	r17,r17,8
   438fc:	1809883a 	mov	r4,r3
   43900:	402c923a 	slli	r22,r8,8
   43904:	88b8b03a 	or	fp,r17,r2
   43908:	e028d43a 	srli	r20,fp,16
   4390c:	d8c00015 	stw	r3,0(sp)
   43910:	e5ffffcc 	andi	r23,fp,65535
   43914:	a00b883a 	mov	r5,r20
   43918:	00455740 	call	45574 <__udivsi3>
   4391c:	d8c00017 	ldw	r3,0(sp)
   43920:	a00b883a 	mov	r5,r20
   43924:	d8800315 	stw	r2,12(sp)
   43928:	1809883a 	mov	r4,r3
   4392c:	00455d80 	call	455d8 <__umodsi3>
   43930:	d9800317 	ldw	r6,12(sp)
   43934:	1006943a 	slli	r3,r2,16
   43938:	9004d43a 	srli	r2,r18,16
   4393c:	b9a3383a 	mul	r17,r23,r6
   43940:	10c4b03a 	or	r2,r2,r3
   43944:	1440062e 	bgeu	r2,r17,43960 <__divdf3+0x39c>
   43948:	1705883a 	add	r2,r2,fp
   4394c:	30ffffc4 	addi	r3,r6,-1
   43950:	1700ee36 	bltu	r2,fp,43d0c <__divdf3+0x748>
   43954:	1440ed2e 	bgeu	r2,r17,43d0c <__divdf3+0x748>
   43958:	31bfff84 	addi	r6,r6,-2
   4395c:	1705883a 	add	r2,r2,fp
   43960:	1463c83a 	sub	r17,r2,r17
   43964:	a00b883a 	mov	r5,r20
   43968:	8809883a 	mov	r4,r17
   4396c:	d9800315 	stw	r6,12(sp)
   43970:	00455740 	call	45574 <__udivsi3>
   43974:	a00b883a 	mov	r5,r20
   43978:	8809883a 	mov	r4,r17
   4397c:	d8800215 	stw	r2,8(sp)
   43980:	00455d80 	call	455d8 <__umodsi3>
   43984:	d9c00217 	ldw	r7,8(sp)
   43988:	1004943a 	slli	r2,r2,16
   4398c:	94bfffcc 	andi	r18,r18,65535
   43990:	b9d1383a 	mul	r8,r23,r7
   43994:	90a4b03a 	or	r18,r18,r2
   43998:	d9800317 	ldw	r6,12(sp)
   4399c:	9200062e 	bgeu	r18,r8,439b8 <__divdf3+0x3f4>
   439a0:	9725883a 	add	r18,r18,fp
   439a4:	38bfffc4 	addi	r2,r7,-1
   439a8:	9700d636 	bltu	r18,fp,43d04 <__divdf3+0x740>
   439ac:	9200d52e 	bgeu	r18,r8,43d04 <__divdf3+0x740>
   439b0:	39ffff84 	addi	r7,r7,-2
   439b4:	9725883a 	add	r18,r18,fp
   439b8:	3004943a 	slli	r2,r6,16
   439bc:	b012d43a 	srli	r9,r22,16
   439c0:	b1bfffcc 	andi	r6,r22,65535
   439c4:	11e2b03a 	or	r17,r2,r7
   439c8:	8806d43a 	srli	r3,r17,16
   439cc:	893fffcc 	andi	r4,r17,65535
   439d0:	218b383a 	mul	r5,r4,r6
   439d4:	30c5383a 	mul	r2,r6,r3
   439d8:	2249383a 	mul	r4,r4,r9
   439dc:	280ed43a 	srli	r7,r5,16
   439e0:	9225c83a 	sub	r18,r18,r8
   439e4:	2089883a 	add	r4,r4,r2
   439e8:	3909883a 	add	r4,r7,r4
   439ec:	1a47383a 	mul	r3,r3,r9
   439f0:	2080022e 	bgeu	r4,r2,439fc <__divdf3+0x438>
   439f4:	00800074 	movhi	r2,1
   439f8:	1887883a 	add	r3,r3,r2
   439fc:	2004d43a 	srli	r2,r4,16
   43a00:	2008943a 	slli	r4,r4,16
   43a04:	297fffcc 	andi	r5,r5,65535
   43a08:	10c7883a 	add	r3,r2,r3
   43a0c:	2149883a 	add	r4,r4,r5
   43a10:	90c0a536 	bltu	r18,r3,43ca8 <__divdf3+0x6e4>
   43a14:	90c0bf26 	beq	r18,r3,43d14 <__divdf3+0x750>
   43a18:	90c7c83a 	sub	r3,r18,r3
   43a1c:	810fc83a 	sub	r7,r16,r4
   43a20:	81e5803a 	cmpltu	r18,r16,r7
   43a24:	1ca5c83a 	sub	r18,r3,r18
   43a28:	e480c126 	beq	fp,r18,43d30 <__divdf3+0x76c>
   43a2c:	a00b883a 	mov	r5,r20
   43a30:	9009883a 	mov	r4,r18
   43a34:	d9800315 	stw	r6,12(sp)
   43a38:	d9c00215 	stw	r7,8(sp)
   43a3c:	da400115 	stw	r9,4(sp)
   43a40:	00455740 	call	45574 <__udivsi3>
   43a44:	a00b883a 	mov	r5,r20
   43a48:	9009883a 	mov	r4,r18
   43a4c:	d8800015 	stw	r2,0(sp)
   43a50:	00455d80 	call	455d8 <__umodsi3>
   43a54:	d9c00217 	ldw	r7,8(sp)
   43a58:	da000017 	ldw	r8,0(sp)
   43a5c:	1006943a 	slli	r3,r2,16
   43a60:	3804d43a 	srli	r2,r7,16
   43a64:	ba21383a 	mul	r16,r23,r8
   43a68:	d9800317 	ldw	r6,12(sp)
   43a6c:	10c4b03a 	or	r2,r2,r3
   43a70:	da400117 	ldw	r9,4(sp)
   43a74:	1400062e 	bgeu	r2,r16,43a90 <__divdf3+0x4cc>
   43a78:	1705883a 	add	r2,r2,fp
   43a7c:	40ffffc4 	addi	r3,r8,-1
   43a80:	1700ad36 	bltu	r2,fp,43d38 <__divdf3+0x774>
   43a84:	1400ac2e 	bgeu	r2,r16,43d38 <__divdf3+0x774>
   43a88:	423fff84 	addi	r8,r8,-2
   43a8c:	1705883a 	add	r2,r2,fp
   43a90:	1421c83a 	sub	r16,r2,r16
   43a94:	a00b883a 	mov	r5,r20
   43a98:	8009883a 	mov	r4,r16
   43a9c:	d9800315 	stw	r6,12(sp)
   43aa0:	d9c00215 	stw	r7,8(sp)
   43aa4:	da000015 	stw	r8,0(sp)
   43aa8:	da400115 	stw	r9,4(sp)
   43aac:	00455740 	call	45574 <__udivsi3>
   43ab0:	8009883a 	mov	r4,r16
   43ab4:	a00b883a 	mov	r5,r20
   43ab8:	1025883a 	mov	r18,r2
   43abc:	00455d80 	call	455d8 <__umodsi3>
   43ac0:	d9c00217 	ldw	r7,8(sp)
   43ac4:	1004943a 	slli	r2,r2,16
   43ac8:	bcaf383a 	mul	r23,r23,r18
   43acc:	393fffcc 	andi	r4,r7,65535
   43ad0:	2088b03a 	or	r4,r4,r2
   43ad4:	d9800317 	ldw	r6,12(sp)
   43ad8:	da000017 	ldw	r8,0(sp)
   43adc:	da400117 	ldw	r9,4(sp)
   43ae0:	25c0062e 	bgeu	r4,r23,43afc <__divdf3+0x538>
   43ae4:	2709883a 	add	r4,r4,fp
   43ae8:	90bfffc4 	addi	r2,r18,-1
   43aec:	27009436 	bltu	r4,fp,43d40 <__divdf3+0x77c>
   43af0:	25c0932e 	bgeu	r4,r23,43d40 <__divdf3+0x77c>
   43af4:	94bfff84 	addi	r18,r18,-2
   43af8:	2709883a 	add	r4,r4,fp
   43afc:	4004943a 	slli	r2,r8,16
   43b00:	25efc83a 	sub	r23,r4,r23
   43b04:	1490b03a 	or	r8,r2,r18
   43b08:	4008d43a 	srli	r4,r8,16
   43b0c:	40ffffcc 	andi	r3,r8,65535
   43b10:	30c5383a 	mul	r2,r6,r3
   43b14:	1a47383a 	mul	r3,r3,r9
   43b18:	310d383a 	mul	r6,r6,r4
   43b1c:	100ad43a 	srli	r5,r2,16
   43b20:	4913383a 	mul	r9,r9,r4
   43b24:	1987883a 	add	r3,r3,r6
   43b28:	28c7883a 	add	r3,r5,r3
   43b2c:	1980022e 	bgeu	r3,r6,43b38 <__divdf3+0x574>
   43b30:	01000074 	movhi	r4,1
   43b34:	4913883a 	add	r9,r9,r4
   43b38:	1808d43a 	srli	r4,r3,16
   43b3c:	1806943a 	slli	r3,r3,16
   43b40:	10bfffcc 	andi	r2,r2,65535
   43b44:	2253883a 	add	r9,r4,r9
   43b48:	1887883a 	add	r3,r3,r2
   43b4c:	ba403836 	bltu	r23,r9,43c30 <__divdf3+0x66c>
   43b50:	ba403626 	beq	r23,r9,43c2c <__divdf3+0x668>
   43b54:	42000054 	ori	r8,r8,1
   43b58:	a880ffc4 	addi	r2,r21,1023
   43b5c:	00bf570e 	bge	zero,r2,438bc <__alt_data_end+0xfffc50bc>
   43b60:	40c001cc 	andi	r3,r8,7
   43b64:	18000726 	beq	r3,zero,43b84 <__divdf3+0x5c0>
   43b68:	40c003cc 	andi	r3,r8,15
   43b6c:	01000104 	movi	r4,4
   43b70:	19000426 	beq	r3,r4,43b84 <__divdf3+0x5c0>
   43b74:	4107883a 	add	r3,r8,r4
   43b78:	1a11803a 	cmpltu	r8,r3,r8
   43b7c:	8a23883a 	add	r17,r17,r8
   43b80:	1811883a 	mov	r8,r3
   43b84:	88c0402c 	andhi	r3,r17,256
   43b88:	18000426 	beq	r3,zero,43b9c <__divdf3+0x5d8>
   43b8c:	00ffc034 	movhi	r3,65280
   43b90:	18ffffc4 	addi	r3,r3,-1
   43b94:	a8810004 	addi	r2,r21,1024
   43b98:	88e2703a 	and	r17,r17,r3
   43b9c:	00c1ff84 	movi	r3,2046
   43ba0:	18bee316 	blt	r3,r2,43730 <__alt_data_end+0xfffc4f30>
   43ba4:	8824977a 	slli	r18,r17,29
   43ba8:	4010d0fa 	srli	r8,r8,3
   43bac:	8822927a 	slli	r17,r17,9
   43bb0:	1081ffcc 	andi	r2,r2,2047
   43bb4:	9224b03a 	or	r18,r18,r8
   43bb8:	880ad33a 	srli	r5,r17,12
   43bbc:	98c0004c 	andi	r3,r19,1
   43bc0:	003edf06 	br	43740 <__alt_data_end+0xfffc4f40>
   43bc4:	8080022c 	andhi	r2,r16,8
   43bc8:	10001226 	beq	r2,zero,43c14 <__divdf3+0x650>
   43bcc:	8880022c 	andhi	r2,r17,8
   43bd0:	1000101e 	bne	r2,zero,43c14 <__divdf3+0x650>
   43bd4:	00800434 	movhi	r2,16
   43bd8:	89400234 	orhi	r5,r17,8
   43bdc:	10bfffc4 	addi	r2,r2,-1
   43be0:	b007883a 	mov	r3,r22
   43be4:	288a703a 	and	r5,r5,r2
   43be8:	4025883a 	mov	r18,r8
   43bec:	003f3106 	br	438b4 <__alt_data_end+0xfffc50b4>
   43bf0:	008000c4 	movi	r2,3
   43bf4:	3880a626 	beq	r7,r2,43e90 <__divdf3+0x8cc>
   43bf8:	00800044 	movi	r2,1
   43bfc:	3880521e 	bne	r7,r2,43d48 <__divdf3+0x784>
   43c00:	b807883a 	mov	r3,r23
   43c04:	0005883a 	mov	r2,zero
   43c08:	000b883a 	mov	r5,zero
   43c0c:	0025883a 	mov	r18,zero
   43c10:	003ecb06 	br	43740 <__alt_data_end+0xfffc4f40>
   43c14:	00800434 	movhi	r2,16
   43c18:	81400234 	orhi	r5,r16,8
   43c1c:	10bfffc4 	addi	r2,r2,-1
   43c20:	a007883a 	mov	r3,r20
   43c24:	288a703a 	and	r5,r5,r2
   43c28:	003f2206 	br	438b4 <__alt_data_end+0xfffc50b4>
   43c2c:	183fca26 	beq	r3,zero,43b58 <__alt_data_end+0xfffc5358>
   43c30:	e5ef883a 	add	r23,fp,r23
   43c34:	40bfffc4 	addi	r2,r8,-1
   43c38:	bf00392e 	bgeu	r23,fp,43d20 <__divdf3+0x75c>
   43c3c:	1011883a 	mov	r8,r2
   43c40:	ba7fc41e 	bne	r23,r9,43b54 <__alt_data_end+0xfffc5354>
   43c44:	b0ffc31e 	bne	r22,r3,43b54 <__alt_data_end+0xfffc5354>
   43c48:	003fc306 	br	43b58 <__alt_data_end+0xfffc5358>
   43c4c:	143ff604 	addi	r16,r2,-40
   43c50:	9c20983a 	sll	r16,r19,r16
   43c54:	0025883a 	mov	r18,zero
   43c58:	003ee206 	br	437e4 <__alt_data_end+0xfffc4fe4>
   43c5c:	d9800315 	stw	r6,12(sp)
   43c60:	d9c00215 	stw	r7,8(sp)
   43c64:	00453a40 	call	453a4 <__clzsi2>
   43c68:	10800804 	addi	r2,r2,32
   43c6c:	d9c00217 	ldw	r7,8(sp)
   43c70:	d9800317 	ldw	r6,12(sp)
   43c74:	003ed106 	br	437bc <__alt_data_end+0xfffc4fbc>
   43c78:	147ff604 	addi	r17,r2,-40
   43c7c:	3462983a 	sll	r17,r6,r17
   43c80:	0011883a 	mov	r8,zero
   43c84:	003ef506 	br	4385c <__alt_data_end+0xfffc505c>
   43c88:	3009883a 	mov	r4,r6
   43c8c:	d9800315 	stw	r6,12(sp)
   43c90:	da400115 	stw	r9,4(sp)
   43c94:	00453a40 	call	453a4 <__clzsi2>
   43c98:	10800804 	addi	r2,r2,32
   43c9c:	da400117 	ldw	r9,4(sp)
   43ca0:	d9800317 	ldw	r6,12(sp)
   43ca4:	003ee306 	br	43834 <__alt_data_end+0xfffc5034>
   43ca8:	85a1883a 	add	r16,r16,r22
   43cac:	8585803a 	cmpltu	r2,r16,r22
   43cb0:	1705883a 	add	r2,r2,fp
   43cb4:	14a5883a 	add	r18,r2,r18
   43cb8:	88bfffc4 	addi	r2,r17,-1
   43cbc:	e4800c2e 	bgeu	fp,r18,43cf0 <__divdf3+0x72c>
   43cc0:	90c03e36 	bltu	r18,r3,43dbc <__divdf3+0x7f8>
   43cc4:	1c806926 	beq	r3,r18,43e6c <__divdf3+0x8a8>
   43cc8:	90c7c83a 	sub	r3,r18,r3
   43ccc:	1023883a 	mov	r17,r2
   43cd0:	003f5206 	br	43a1c <__alt_data_end+0xfffc521c>
   43cd4:	923f0436 	bltu	r18,r8,438e8 <__alt_data_end+0xfffc50e8>
   43cd8:	800897fa 	slli	r4,r16,31
   43cdc:	9004d07a 	srli	r2,r18,1
   43ce0:	8006d07a 	srli	r3,r16,1
   43ce4:	902097fa 	slli	r16,r18,31
   43ce8:	20a4b03a 	or	r18,r4,r2
   43cec:	003f0106 	br	438f4 <__alt_data_end+0xfffc50f4>
   43cf0:	e4bff51e 	bne	fp,r18,43cc8 <__alt_data_end+0xfffc54c8>
   43cf4:	85bff22e 	bgeu	r16,r22,43cc0 <__alt_data_end+0xfffc54c0>
   43cf8:	e0c7c83a 	sub	r3,fp,r3
   43cfc:	1023883a 	mov	r17,r2
   43d00:	003f4606 	br	43a1c <__alt_data_end+0xfffc521c>
   43d04:	100f883a 	mov	r7,r2
   43d08:	003f2b06 	br	439b8 <__alt_data_end+0xfffc51b8>
   43d0c:	180d883a 	mov	r6,r3
   43d10:	003f1306 	br	43960 <__alt_data_end+0xfffc5160>
   43d14:	813fe436 	bltu	r16,r4,43ca8 <__alt_data_end+0xfffc54a8>
   43d18:	0007883a 	mov	r3,zero
   43d1c:	003f3f06 	br	43a1c <__alt_data_end+0xfffc521c>
   43d20:	ba402c36 	bltu	r23,r9,43dd4 <__divdf3+0x810>
   43d24:	4dc05426 	beq	r9,r23,43e78 <__divdf3+0x8b4>
   43d28:	1011883a 	mov	r8,r2
   43d2c:	003f8906 	br	43b54 <__alt_data_end+0xfffc5354>
   43d30:	023fffc4 	movi	r8,-1
   43d34:	003f8806 	br	43b58 <__alt_data_end+0xfffc5358>
   43d38:	1811883a 	mov	r8,r3
   43d3c:	003f5406 	br	43a90 <__alt_data_end+0xfffc5290>
   43d40:	1025883a 	mov	r18,r2
   43d44:	003f6d06 	br	43afc <__alt_data_end+0xfffc52fc>
   43d48:	b827883a 	mov	r19,r23
   43d4c:	003f8206 	br	43b58 <__alt_data_end+0xfffc5358>
   43d50:	010007c4 	movi	r4,31
   43d54:	20c02616 	blt	r4,r3,43df0 <__divdf3+0x82c>
   43d58:	00800804 	movi	r2,32
   43d5c:	10c5c83a 	sub	r2,r2,r3
   43d60:	888a983a 	sll	r5,r17,r2
   43d64:	40c8d83a 	srl	r4,r8,r3
   43d68:	4084983a 	sll	r2,r8,r2
   43d6c:	88e2d83a 	srl	r17,r17,r3
   43d70:	2906b03a 	or	r3,r5,r4
   43d74:	1004c03a 	cmpne	r2,r2,zero
   43d78:	1886b03a 	or	r3,r3,r2
   43d7c:	188001cc 	andi	r2,r3,7
   43d80:	10000726 	beq	r2,zero,43da0 <__divdf3+0x7dc>
   43d84:	188003cc 	andi	r2,r3,15
   43d88:	01000104 	movi	r4,4
   43d8c:	11000426 	beq	r2,r4,43da0 <__divdf3+0x7dc>
   43d90:	1805883a 	mov	r2,r3
   43d94:	10c00104 	addi	r3,r2,4
   43d98:	1885803a 	cmpltu	r2,r3,r2
   43d9c:	88a3883a 	add	r17,r17,r2
   43da0:	8880202c 	andhi	r2,r17,128
   43da4:	10002726 	beq	r2,zero,43e44 <__divdf3+0x880>
   43da8:	98c0004c 	andi	r3,r19,1
   43dac:	00800044 	movi	r2,1
   43db0:	000b883a 	mov	r5,zero
   43db4:	0025883a 	mov	r18,zero
   43db8:	003e6106 	br	43740 <__alt_data_end+0xfffc4f40>
   43dbc:	85a1883a 	add	r16,r16,r22
   43dc0:	8585803a 	cmpltu	r2,r16,r22
   43dc4:	1705883a 	add	r2,r2,fp
   43dc8:	14a5883a 	add	r18,r2,r18
   43dcc:	8c7fff84 	addi	r17,r17,-2
   43dd0:	003f1106 	br	43a18 <__alt_data_end+0xfffc5218>
   43dd4:	b589883a 	add	r4,r22,r22
   43dd8:	25ad803a 	cmpltu	r22,r4,r22
   43ddc:	b739883a 	add	fp,r22,fp
   43de0:	40bfff84 	addi	r2,r8,-2
   43de4:	bf2f883a 	add	r23,r23,fp
   43de8:	202d883a 	mov	r22,r4
   43dec:	003f9306 	br	43c3c <__alt_data_end+0xfffc543c>
   43df0:	013ff844 	movi	r4,-31
   43df4:	2085c83a 	sub	r2,r4,r2
   43df8:	8888d83a 	srl	r4,r17,r2
   43dfc:	00800804 	movi	r2,32
   43e00:	18802126 	beq	r3,r2,43e88 <__divdf3+0x8c4>
   43e04:	00801004 	movi	r2,64
   43e08:	10c5c83a 	sub	r2,r2,r3
   43e0c:	8884983a 	sll	r2,r17,r2
   43e10:	1204b03a 	or	r2,r2,r8
   43e14:	1004c03a 	cmpne	r2,r2,zero
   43e18:	2084b03a 	or	r2,r4,r2
   43e1c:	144001cc 	andi	r17,r2,7
   43e20:	88000d1e 	bne	r17,zero,43e58 <__divdf3+0x894>
   43e24:	000b883a 	mov	r5,zero
   43e28:	1024d0fa 	srli	r18,r2,3
   43e2c:	98c0004c 	andi	r3,r19,1
   43e30:	0005883a 	mov	r2,zero
   43e34:	9464b03a 	or	r18,r18,r17
   43e38:	003e4106 	br	43740 <__alt_data_end+0xfffc4f40>
   43e3c:	1007883a 	mov	r3,r2
   43e40:	0023883a 	mov	r17,zero
   43e44:	880a927a 	slli	r5,r17,9
   43e48:	1805883a 	mov	r2,r3
   43e4c:	8822977a 	slli	r17,r17,29
   43e50:	280ad33a 	srli	r5,r5,12
   43e54:	003ff406 	br	43e28 <__alt_data_end+0xfffc5628>
   43e58:	10c003cc 	andi	r3,r2,15
   43e5c:	01000104 	movi	r4,4
   43e60:	193ff626 	beq	r3,r4,43e3c <__alt_data_end+0xfffc563c>
   43e64:	0023883a 	mov	r17,zero
   43e68:	003fca06 	br	43d94 <__alt_data_end+0xfffc5594>
   43e6c:	813fd336 	bltu	r16,r4,43dbc <__alt_data_end+0xfffc55bc>
   43e70:	1023883a 	mov	r17,r2
   43e74:	003fa806 	br	43d18 <__alt_data_end+0xfffc5518>
   43e78:	b0ffd636 	bltu	r22,r3,43dd4 <__alt_data_end+0xfffc55d4>
   43e7c:	1011883a 	mov	r8,r2
   43e80:	b0ff341e 	bne	r22,r3,43b54 <__alt_data_end+0xfffc5354>
   43e84:	003f3406 	br	43b58 <__alt_data_end+0xfffc5358>
   43e88:	0005883a 	mov	r2,zero
   43e8c:	003fe006 	br	43e10 <__alt_data_end+0xfffc5610>
   43e90:	00800434 	movhi	r2,16
   43e94:	89400234 	orhi	r5,r17,8
   43e98:	10bfffc4 	addi	r2,r2,-1
   43e9c:	b807883a 	mov	r3,r23
   43ea0:	288a703a 	and	r5,r5,r2
   43ea4:	4025883a 	mov	r18,r8
   43ea8:	003e8206 	br	438b4 <__alt_data_end+0xfffc50b4>

00043eac <__gedf2>:
   43eac:	2804d53a 	srli	r2,r5,20
   43eb0:	3806d53a 	srli	r3,r7,20
   43eb4:	02000434 	movhi	r8,16
   43eb8:	423fffc4 	addi	r8,r8,-1
   43ebc:	1081ffcc 	andi	r2,r2,2047
   43ec0:	0241ffc4 	movi	r9,2047
   43ec4:	2a14703a 	and	r10,r5,r8
   43ec8:	18c1ffcc 	andi	r3,r3,2047
   43ecc:	3a10703a 	and	r8,r7,r8
   43ed0:	280ad7fa 	srli	r5,r5,31
   43ed4:	380ed7fa 	srli	r7,r7,31
   43ed8:	12401d26 	beq	r2,r9,43f50 <__gedf2+0xa4>
   43edc:	0241ffc4 	movi	r9,2047
   43ee0:	1a401226 	beq	r3,r9,43f2c <__gedf2+0x80>
   43ee4:	1000081e 	bne	r2,zero,43f08 <__gedf2+0x5c>
   43ee8:	2296b03a 	or	r11,r4,r10
   43eec:	5813003a 	cmpeq	r9,r11,zero
   43ef0:	1800091e 	bne	r3,zero,43f18 <__gedf2+0x6c>
   43ef4:	3218b03a 	or	r12,r6,r8
   43ef8:	6000071e 	bne	r12,zero,43f18 <__gedf2+0x6c>
   43efc:	0005883a 	mov	r2,zero
   43f00:	5800101e 	bne	r11,zero,43f44 <__gedf2+0x98>
   43f04:	f800283a 	ret
   43f08:	18000c1e 	bne	r3,zero,43f3c <__gedf2+0x90>
   43f0c:	3212b03a 	or	r9,r6,r8
   43f10:	48000c26 	beq	r9,zero,43f44 <__gedf2+0x98>
   43f14:	0013883a 	mov	r9,zero
   43f18:	39c03fcc 	andi	r7,r7,255
   43f1c:	48000826 	beq	r9,zero,43f40 <__gedf2+0x94>
   43f20:	38000926 	beq	r7,zero,43f48 <__gedf2+0x9c>
   43f24:	00800044 	movi	r2,1
   43f28:	f800283a 	ret
   43f2c:	3212b03a 	or	r9,r6,r8
   43f30:	483fec26 	beq	r9,zero,43ee4 <__alt_data_end+0xfffc56e4>
   43f34:	00bfff84 	movi	r2,-2
   43f38:	f800283a 	ret
   43f3c:	39c03fcc 	andi	r7,r7,255
   43f40:	29c00626 	beq	r5,r7,43f5c <__gedf2+0xb0>
   43f44:	283ff726 	beq	r5,zero,43f24 <__alt_data_end+0xfffc5724>
   43f48:	00bfffc4 	movi	r2,-1
   43f4c:	f800283a 	ret
   43f50:	2292b03a 	or	r9,r4,r10
   43f54:	483fe126 	beq	r9,zero,43edc <__alt_data_end+0xfffc56dc>
   43f58:	003ff606 	br	43f34 <__alt_data_end+0xfffc5734>
   43f5c:	18bff916 	blt	r3,r2,43f44 <__alt_data_end+0xfffc5744>
   43f60:	10c00316 	blt	r2,r3,43f70 <__gedf2+0xc4>
   43f64:	42bff736 	bltu	r8,r10,43f44 <__alt_data_end+0xfffc5744>
   43f68:	52000326 	beq	r10,r8,43f78 <__gedf2+0xcc>
   43f6c:	5200042e 	bgeu	r10,r8,43f80 <__gedf2+0xd4>
   43f70:	283fec1e 	bne	r5,zero,43f24 <__alt_data_end+0xfffc5724>
   43f74:	003ff406 	br	43f48 <__alt_data_end+0xfffc5748>
   43f78:	313ff236 	bltu	r6,r4,43f44 <__alt_data_end+0xfffc5744>
   43f7c:	21bffc36 	bltu	r4,r6,43f70 <__alt_data_end+0xfffc5770>
   43f80:	0005883a 	mov	r2,zero
   43f84:	f800283a 	ret

00043f88 <__ledf2>:
   43f88:	2804d53a 	srli	r2,r5,20
   43f8c:	3810d53a 	srli	r8,r7,20
   43f90:	00c00434 	movhi	r3,16
   43f94:	18ffffc4 	addi	r3,r3,-1
   43f98:	1081ffcc 	andi	r2,r2,2047
   43f9c:	0241ffc4 	movi	r9,2047
   43fa0:	28d4703a 	and	r10,r5,r3
   43fa4:	4201ffcc 	andi	r8,r8,2047
   43fa8:	38c6703a 	and	r3,r7,r3
   43fac:	280ad7fa 	srli	r5,r5,31
   43fb0:	380ed7fa 	srli	r7,r7,31
   43fb4:	12401f26 	beq	r2,r9,44034 <__ledf2+0xac>
   43fb8:	0241ffc4 	movi	r9,2047
   43fbc:	42401426 	beq	r8,r9,44010 <__ledf2+0x88>
   43fc0:	1000091e 	bne	r2,zero,43fe8 <__ledf2+0x60>
   43fc4:	2296b03a 	or	r11,r4,r10
   43fc8:	5813003a 	cmpeq	r9,r11,zero
   43fcc:	29403fcc 	andi	r5,r5,255
   43fd0:	40000a1e 	bne	r8,zero,43ffc <__ledf2+0x74>
   43fd4:	30d8b03a 	or	r12,r6,r3
   43fd8:	6000081e 	bne	r12,zero,43ffc <__ledf2+0x74>
   43fdc:	0005883a 	mov	r2,zero
   43fe0:	5800111e 	bne	r11,zero,44028 <__ledf2+0xa0>
   43fe4:	f800283a 	ret
   43fe8:	29403fcc 	andi	r5,r5,255
   43fec:	40000c1e 	bne	r8,zero,44020 <__ledf2+0x98>
   43ff0:	30d2b03a 	or	r9,r6,r3
   43ff4:	48000c26 	beq	r9,zero,44028 <__ledf2+0xa0>
   43ff8:	0013883a 	mov	r9,zero
   43ffc:	39c03fcc 	andi	r7,r7,255
   44000:	48000826 	beq	r9,zero,44024 <__ledf2+0x9c>
   44004:	38001126 	beq	r7,zero,4404c <__ledf2+0xc4>
   44008:	00800044 	movi	r2,1
   4400c:	f800283a 	ret
   44010:	30d2b03a 	or	r9,r6,r3
   44014:	483fea26 	beq	r9,zero,43fc0 <__alt_data_end+0xfffc57c0>
   44018:	00800084 	movi	r2,2
   4401c:	f800283a 	ret
   44020:	39c03fcc 	andi	r7,r7,255
   44024:	39400726 	beq	r7,r5,44044 <__ledf2+0xbc>
   44028:	2800081e 	bne	r5,zero,4404c <__ledf2+0xc4>
   4402c:	00800044 	movi	r2,1
   44030:	f800283a 	ret
   44034:	2292b03a 	or	r9,r4,r10
   44038:	483fdf26 	beq	r9,zero,43fb8 <__alt_data_end+0xfffc57b8>
   4403c:	00800084 	movi	r2,2
   44040:	f800283a 	ret
   44044:	4080030e 	bge	r8,r2,44054 <__ledf2+0xcc>
   44048:	383fef26 	beq	r7,zero,44008 <__alt_data_end+0xfffc5808>
   4404c:	00bfffc4 	movi	r2,-1
   44050:	f800283a 	ret
   44054:	123feb16 	blt	r2,r8,44004 <__alt_data_end+0xfffc5804>
   44058:	1abff336 	bltu	r3,r10,44028 <__alt_data_end+0xfffc5828>
   4405c:	50c00326 	beq	r10,r3,4406c <__ledf2+0xe4>
   44060:	50c0042e 	bgeu	r10,r3,44074 <__ledf2+0xec>
   44064:	283fe81e 	bne	r5,zero,44008 <__alt_data_end+0xfffc5808>
   44068:	003ff806 	br	4404c <__alt_data_end+0xfffc584c>
   4406c:	313fee36 	bltu	r6,r4,44028 <__alt_data_end+0xfffc5828>
   44070:	21bffc36 	bltu	r4,r6,44064 <__alt_data_end+0xfffc5864>
   44074:	0005883a 	mov	r2,zero
   44078:	f800283a 	ret

0004407c <__muldf3>:
   4407c:	defff304 	addi	sp,sp,-52
   44080:	2804d53a 	srli	r2,r5,20
   44084:	dd800915 	stw	r22,36(sp)
   44088:	282cd7fa 	srli	r22,r5,31
   4408c:	dc000315 	stw	r16,12(sp)
   44090:	04000434 	movhi	r16,16
   44094:	dd400815 	stw	r21,32(sp)
   44098:	dc800515 	stw	r18,20(sp)
   4409c:	843fffc4 	addi	r16,r16,-1
   440a0:	dfc00c15 	stw	ra,48(sp)
   440a4:	df000b15 	stw	fp,44(sp)
   440a8:	ddc00a15 	stw	r23,40(sp)
   440ac:	dd000715 	stw	r20,28(sp)
   440b0:	dcc00615 	stw	r19,24(sp)
   440b4:	dc400415 	stw	r17,16(sp)
   440b8:	1481ffcc 	andi	r18,r2,2047
   440bc:	2c20703a 	and	r16,r5,r16
   440c0:	b02b883a 	mov	r21,r22
   440c4:	b2403fcc 	andi	r9,r22,255
   440c8:	90006026 	beq	r18,zero,4424c <__muldf3+0x1d0>
   440cc:	0081ffc4 	movi	r2,2047
   440d0:	2029883a 	mov	r20,r4
   440d4:	90803626 	beq	r18,r2,441b0 <__muldf3+0x134>
   440d8:	80800434 	orhi	r2,r16,16
   440dc:	100490fa 	slli	r2,r2,3
   440e0:	2020d77a 	srli	r16,r4,29
   440e4:	202890fa 	slli	r20,r4,3
   440e8:	94bf0044 	addi	r18,r18,-1023
   440ec:	80a0b03a 	or	r16,r16,r2
   440f0:	0027883a 	mov	r19,zero
   440f4:	0039883a 	mov	fp,zero
   440f8:	3804d53a 	srli	r2,r7,20
   440fc:	382ed7fa 	srli	r23,r7,31
   44100:	04400434 	movhi	r17,16
   44104:	8c7fffc4 	addi	r17,r17,-1
   44108:	1081ffcc 	andi	r2,r2,2047
   4410c:	3011883a 	mov	r8,r6
   44110:	3c62703a 	and	r17,r7,r17
   44114:	ba803fcc 	andi	r10,r23,255
   44118:	10006d26 	beq	r2,zero,442d0 <__muldf3+0x254>
   4411c:	00c1ffc4 	movi	r3,2047
   44120:	10c06526 	beq	r2,r3,442b8 <__muldf3+0x23c>
   44124:	88c00434 	orhi	r3,r17,16
   44128:	180690fa 	slli	r3,r3,3
   4412c:	3022d77a 	srli	r17,r6,29
   44130:	301090fa 	slli	r8,r6,3
   44134:	10bf0044 	addi	r2,r2,-1023
   44138:	88e2b03a 	or	r17,r17,r3
   4413c:	000b883a 	mov	r5,zero
   44140:	9085883a 	add	r2,r18,r2
   44144:	2cc8b03a 	or	r4,r5,r19
   44148:	00c003c4 	movi	r3,15
   4414c:	bdacf03a 	xor	r22,r23,r22
   44150:	12c00044 	addi	r11,r2,1
   44154:	19009936 	bltu	r3,r4,443bc <__muldf3+0x340>
   44158:	200890ba 	slli	r4,r4,2
   4415c:	00c00134 	movhi	r3,4
   44160:	18d05c04 	addi	r3,r3,16752
   44164:	20c9883a 	add	r4,r4,r3
   44168:	20c00017 	ldw	r3,0(r4)
   4416c:	1800683a 	jmp	r3
   44170:	000443bc 	xorhi	zero,zero,4366
   44174:	000441d0 	cmplti	zero,zero,4359
   44178:	000441d0 	cmplti	zero,zero,4359
   4417c:	000441cc 	andi	zero,zero,4359
   44180:	00044398 	cmpnei	zero,zero,4366
   44184:	00044398 	cmpnei	zero,zero,4366
   44188:	00044380 	call	4438 <__alt_mem_onchip_memory2-0x3bbc8>
   4418c:	000441cc 	andi	zero,zero,4359
   44190:	00044398 	cmpnei	zero,zero,4366
   44194:	00044380 	call	4438 <__alt_mem_onchip_memory2-0x3bbc8>
   44198:	00044398 	cmpnei	zero,zero,4366
   4419c:	000441cc 	andi	zero,zero,4359
   441a0:	000443a8 	cmpgeui	zero,zero,4366
   441a4:	000443a8 	cmpgeui	zero,zero,4366
   441a8:	000443a8 	cmpgeui	zero,zero,4366
   441ac:	000445c4 	movi	zero,4375
   441b0:	2404b03a 	or	r2,r4,r16
   441b4:	10006f1e 	bne	r2,zero,44374 <__muldf3+0x2f8>
   441b8:	04c00204 	movi	r19,8
   441bc:	0021883a 	mov	r16,zero
   441c0:	0029883a 	mov	r20,zero
   441c4:	07000084 	movi	fp,2
   441c8:	003fcb06 	br	440f8 <__alt_data_end+0xfffc58f8>
   441cc:	502d883a 	mov	r22,r10
   441d0:	00800084 	movi	r2,2
   441d4:	28805726 	beq	r5,r2,44334 <__muldf3+0x2b8>
   441d8:	008000c4 	movi	r2,3
   441dc:	28816626 	beq	r5,r2,44778 <__muldf3+0x6fc>
   441e0:	00800044 	movi	r2,1
   441e4:	2881411e 	bne	r5,r2,446ec <__muldf3+0x670>
   441e8:	b02b883a 	mov	r21,r22
   441ec:	0005883a 	mov	r2,zero
   441f0:	000b883a 	mov	r5,zero
   441f4:	0029883a 	mov	r20,zero
   441f8:	1004953a 	slli	r2,r2,20
   441fc:	a8c03fcc 	andi	r3,r21,255
   44200:	04400434 	movhi	r17,16
   44204:	8c7fffc4 	addi	r17,r17,-1
   44208:	180697fa 	slli	r3,r3,31
   4420c:	2c4a703a 	and	r5,r5,r17
   44210:	288ab03a 	or	r5,r5,r2
   44214:	28c6b03a 	or	r3,r5,r3
   44218:	a005883a 	mov	r2,r20
   4421c:	dfc00c17 	ldw	ra,48(sp)
   44220:	df000b17 	ldw	fp,44(sp)
   44224:	ddc00a17 	ldw	r23,40(sp)
   44228:	dd800917 	ldw	r22,36(sp)
   4422c:	dd400817 	ldw	r21,32(sp)
   44230:	dd000717 	ldw	r20,28(sp)
   44234:	dcc00617 	ldw	r19,24(sp)
   44238:	dc800517 	ldw	r18,20(sp)
   4423c:	dc400417 	ldw	r17,16(sp)
   44240:	dc000317 	ldw	r16,12(sp)
   44244:	dec00d04 	addi	sp,sp,52
   44248:	f800283a 	ret
   4424c:	2404b03a 	or	r2,r4,r16
   44250:	2027883a 	mov	r19,r4
   44254:	10004226 	beq	r2,zero,44360 <__muldf3+0x2e4>
   44258:	8000fc26 	beq	r16,zero,4464c <__muldf3+0x5d0>
   4425c:	8009883a 	mov	r4,r16
   44260:	d9800215 	stw	r6,8(sp)
   44264:	d9c00015 	stw	r7,0(sp)
   44268:	da400115 	stw	r9,4(sp)
   4426c:	00453a40 	call	453a4 <__clzsi2>
   44270:	d9800217 	ldw	r6,8(sp)
   44274:	d9c00017 	ldw	r7,0(sp)
   44278:	da400117 	ldw	r9,4(sp)
   4427c:	113ffd44 	addi	r4,r2,-11
   44280:	00c00704 	movi	r3,28
   44284:	1900ed16 	blt	r3,r4,4463c <__muldf3+0x5c0>
   44288:	00c00744 	movi	r3,29
   4428c:	147ffe04 	addi	r17,r2,-8
   44290:	1907c83a 	sub	r3,r3,r4
   44294:	8460983a 	sll	r16,r16,r17
   44298:	98c6d83a 	srl	r3,r19,r3
   4429c:	9c68983a 	sll	r20,r19,r17
   442a0:	1c20b03a 	or	r16,r3,r16
   442a4:	1080fcc4 	addi	r2,r2,1011
   442a8:	00a5c83a 	sub	r18,zero,r2
   442ac:	0027883a 	mov	r19,zero
   442b0:	0039883a 	mov	fp,zero
   442b4:	003f9006 	br	440f8 <__alt_data_end+0xfffc58f8>
   442b8:	3446b03a 	or	r3,r6,r17
   442bc:	1800261e 	bne	r3,zero,44358 <__muldf3+0x2dc>
   442c0:	0023883a 	mov	r17,zero
   442c4:	0011883a 	mov	r8,zero
   442c8:	01400084 	movi	r5,2
   442cc:	003f9c06 	br	44140 <__alt_data_end+0xfffc5940>
   442d0:	3446b03a 	or	r3,r6,r17
   442d4:	18001c26 	beq	r3,zero,44348 <__muldf3+0x2cc>
   442d8:	8800ce26 	beq	r17,zero,44614 <__muldf3+0x598>
   442dc:	8809883a 	mov	r4,r17
   442e0:	d9800215 	stw	r6,8(sp)
   442e4:	da400115 	stw	r9,4(sp)
   442e8:	da800015 	stw	r10,0(sp)
   442ec:	00453a40 	call	453a4 <__clzsi2>
   442f0:	d9800217 	ldw	r6,8(sp)
   442f4:	da400117 	ldw	r9,4(sp)
   442f8:	da800017 	ldw	r10,0(sp)
   442fc:	113ffd44 	addi	r4,r2,-11
   44300:	00c00704 	movi	r3,28
   44304:	1900bf16 	blt	r3,r4,44604 <__muldf3+0x588>
   44308:	00c00744 	movi	r3,29
   4430c:	123ffe04 	addi	r8,r2,-8
   44310:	1907c83a 	sub	r3,r3,r4
   44314:	8a22983a 	sll	r17,r17,r8
   44318:	30c6d83a 	srl	r3,r6,r3
   4431c:	3210983a 	sll	r8,r6,r8
   44320:	1c62b03a 	or	r17,r3,r17
   44324:	1080fcc4 	addi	r2,r2,1011
   44328:	0085c83a 	sub	r2,zero,r2
   4432c:	000b883a 	mov	r5,zero
   44330:	003f8306 	br	44140 <__alt_data_end+0xfffc5940>
   44334:	b02b883a 	mov	r21,r22
   44338:	0081ffc4 	movi	r2,2047
   4433c:	000b883a 	mov	r5,zero
   44340:	0029883a 	mov	r20,zero
   44344:	003fac06 	br	441f8 <__alt_data_end+0xfffc59f8>
   44348:	0023883a 	mov	r17,zero
   4434c:	0011883a 	mov	r8,zero
   44350:	01400044 	movi	r5,1
   44354:	003f7a06 	br	44140 <__alt_data_end+0xfffc5940>
   44358:	014000c4 	movi	r5,3
   4435c:	003f7806 	br	44140 <__alt_data_end+0xfffc5940>
   44360:	04c00104 	movi	r19,4
   44364:	0021883a 	mov	r16,zero
   44368:	0029883a 	mov	r20,zero
   4436c:	07000044 	movi	fp,1
   44370:	003f6106 	br	440f8 <__alt_data_end+0xfffc58f8>
   44374:	04c00304 	movi	r19,12
   44378:	070000c4 	movi	fp,3
   4437c:	003f5e06 	br	440f8 <__alt_data_end+0xfffc58f8>
   44380:	01400434 	movhi	r5,16
   44384:	002b883a 	mov	r21,zero
   44388:	297fffc4 	addi	r5,r5,-1
   4438c:	053fffc4 	movi	r20,-1
   44390:	0081ffc4 	movi	r2,2047
   44394:	003f9806 	br	441f8 <__alt_data_end+0xfffc59f8>
   44398:	8023883a 	mov	r17,r16
   4439c:	a011883a 	mov	r8,r20
   443a0:	e00b883a 	mov	r5,fp
   443a4:	003f8a06 	br	441d0 <__alt_data_end+0xfffc59d0>
   443a8:	8023883a 	mov	r17,r16
   443ac:	a011883a 	mov	r8,r20
   443b0:	482d883a 	mov	r22,r9
   443b4:	e00b883a 	mov	r5,fp
   443b8:	003f8506 	br	441d0 <__alt_data_end+0xfffc59d0>
   443bc:	a00ad43a 	srli	r5,r20,16
   443c0:	401ad43a 	srli	r13,r8,16
   443c4:	a53fffcc 	andi	r20,r20,65535
   443c8:	423fffcc 	andi	r8,r8,65535
   443cc:	4519383a 	mul	r12,r8,r20
   443d0:	4147383a 	mul	r3,r8,r5
   443d4:	6d09383a 	mul	r4,r13,r20
   443d8:	600cd43a 	srli	r6,r12,16
   443dc:	2b5d383a 	mul	r14,r5,r13
   443e0:	20c9883a 	add	r4,r4,r3
   443e4:	310d883a 	add	r6,r6,r4
   443e8:	30c0022e 	bgeu	r6,r3,443f4 <__muldf3+0x378>
   443ec:	00c00074 	movhi	r3,1
   443f0:	70dd883a 	add	r14,r14,r3
   443f4:	8826d43a 	srli	r19,r17,16
   443f8:	8bffffcc 	andi	r15,r17,65535
   443fc:	7d23383a 	mul	r17,r15,r20
   44400:	7949383a 	mul	r4,r15,r5
   44404:	9d29383a 	mul	r20,r19,r20
   44408:	8814d43a 	srli	r10,r17,16
   4440c:	3012943a 	slli	r9,r6,16
   44410:	a129883a 	add	r20,r20,r4
   44414:	633fffcc 	andi	r12,r12,65535
   44418:	5515883a 	add	r10,r10,r20
   4441c:	3006d43a 	srli	r3,r6,16
   44420:	4b13883a 	add	r9,r9,r12
   44424:	2ccb383a 	mul	r5,r5,r19
   44428:	5100022e 	bgeu	r10,r4,44434 <__muldf3+0x3b8>
   4442c:	01000074 	movhi	r4,1
   44430:	290b883a 	add	r5,r5,r4
   44434:	802ad43a 	srli	r21,r16,16
   44438:	843fffcc 	andi	r16,r16,65535
   4443c:	440d383a 	mul	r6,r8,r16
   44440:	4565383a 	mul	r18,r8,r21
   44444:	8349383a 	mul	r4,r16,r13
   44448:	500e943a 	slli	r7,r10,16
   4444c:	3010d43a 	srli	r8,r6,16
   44450:	5028d43a 	srli	r20,r10,16
   44454:	2489883a 	add	r4,r4,r18
   44458:	8abfffcc 	andi	r10,r17,65535
   4445c:	3a95883a 	add	r10,r7,r10
   44460:	4119883a 	add	r12,r8,r4
   44464:	a169883a 	add	r20,r20,r5
   44468:	1a87883a 	add	r3,r3,r10
   4446c:	6d5b383a 	mul	r13,r13,r21
   44470:	6480022e 	bgeu	r12,r18,4447c <__muldf3+0x400>
   44474:	01000074 	movhi	r4,1
   44478:	691b883a 	add	r13,r13,r4
   4447c:	7c25383a 	mul	r18,r15,r16
   44480:	7d4b383a 	mul	r5,r15,r21
   44484:	84cf383a 	mul	r7,r16,r19
   44488:	901ed43a 	srli	r15,r18,16
   4448c:	6008d43a 	srli	r4,r12,16
   44490:	6010943a 	slli	r8,r12,16
   44494:	394f883a 	add	r7,r7,r5
   44498:	333fffcc 	andi	r12,r6,65535
   4449c:	79df883a 	add	r15,r15,r7
   444a0:	235b883a 	add	r13,r4,r13
   444a4:	9d63383a 	mul	r17,r19,r21
   444a8:	4309883a 	add	r4,r8,r12
   444ac:	7940022e 	bgeu	r15,r5,444b8 <__muldf3+0x43c>
   444b0:	01400074 	movhi	r5,1
   444b4:	8963883a 	add	r17,r17,r5
   444b8:	780a943a 	slli	r5,r15,16
   444bc:	91bfffcc 	andi	r6,r18,65535
   444c0:	70c7883a 	add	r3,r14,r3
   444c4:	298d883a 	add	r6,r5,r6
   444c8:	1a8f803a 	cmpltu	r7,r3,r10
   444cc:	350b883a 	add	r5,r6,r20
   444d0:	20c7883a 	add	r3,r4,r3
   444d4:	3955883a 	add	r10,r7,r5
   444d8:	1909803a 	cmpltu	r4,r3,r4
   444dc:	6a91883a 	add	r8,r13,r10
   444e0:	780cd43a 	srli	r6,r15,16
   444e4:	2219883a 	add	r12,r4,r8
   444e8:	2d0b803a 	cmpltu	r5,r5,r20
   444ec:	51cf803a 	cmpltu	r7,r10,r7
   444f0:	29ceb03a 	or	r7,r5,r7
   444f4:	4351803a 	cmpltu	r8,r8,r13
   444f8:	610b803a 	cmpltu	r5,r12,r4
   444fc:	4148b03a 	or	r4,r8,r5
   44500:	398f883a 	add	r7,r7,r6
   44504:	3909883a 	add	r4,r7,r4
   44508:	1810927a 	slli	r8,r3,9
   4450c:	2449883a 	add	r4,r4,r17
   44510:	2008927a 	slli	r4,r4,9
   44514:	6022d5fa 	srli	r17,r12,23
   44518:	1806d5fa 	srli	r3,r3,23
   4451c:	4252b03a 	or	r9,r8,r9
   44520:	600a927a 	slli	r5,r12,9
   44524:	4810c03a 	cmpne	r8,r9,zero
   44528:	2462b03a 	or	r17,r4,r17
   4452c:	40c6b03a 	or	r3,r8,r3
   44530:	8900402c 	andhi	r4,r17,256
   44534:	1950b03a 	or	r8,r3,r5
   44538:	20000726 	beq	r4,zero,44558 <__muldf3+0x4dc>
   4453c:	4006d07a 	srli	r3,r8,1
   44540:	880497fa 	slli	r2,r17,31
   44544:	4200004c 	andi	r8,r8,1
   44548:	8822d07a 	srli	r17,r17,1
   4454c:	1a10b03a 	or	r8,r3,r8
   44550:	1210b03a 	or	r8,r2,r8
   44554:	5805883a 	mov	r2,r11
   44558:	1140ffc4 	addi	r5,r2,1023
   4455c:	0140440e 	bge	zero,r5,44670 <__muldf3+0x5f4>
   44560:	40c001cc 	andi	r3,r8,7
   44564:	18000726 	beq	r3,zero,44584 <__muldf3+0x508>
   44568:	40c003cc 	andi	r3,r8,15
   4456c:	01000104 	movi	r4,4
   44570:	19000426 	beq	r3,r4,44584 <__muldf3+0x508>
   44574:	4107883a 	add	r3,r8,r4
   44578:	1a11803a 	cmpltu	r8,r3,r8
   4457c:	8a23883a 	add	r17,r17,r8
   44580:	1811883a 	mov	r8,r3
   44584:	88c0402c 	andhi	r3,r17,256
   44588:	18000426 	beq	r3,zero,4459c <__muldf3+0x520>
   4458c:	11410004 	addi	r5,r2,1024
   44590:	00bfc034 	movhi	r2,65280
   44594:	10bfffc4 	addi	r2,r2,-1
   44598:	88a2703a 	and	r17,r17,r2
   4459c:	0081ff84 	movi	r2,2046
   445a0:	117f6416 	blt	r2,r5,44334 <__alt_data_end+0xfffc5b34>
   445a4:	8828977a 	slli	r20,r17,29
   445a8:	4010d0fa 	srli	r8,r8,3
   445ac:	8822927a 	slli	r17,r17,9
   445b0:	2881ffcc 	andi	r2,r5,2047
   445b4:	a228b03a 	or	r20,r20,r8
   445b8:	880ad33a 	srli	r5,r17,12
   445bc:	b02b883a 	mov	r21,r22
   445c0:	003f0d06 	br	441f8 <__alt_data_end+0xfffc59f8>
   445c4:	8080022c 	andhi	r2,r16,8
   445c8:	10000926 	beq	r2,zero,445f0 <__muldf3+0x574>
   445cc:	8880022c 	andhi	r2,r17,8
   445d0:	1000071e 	bne	r2,zero,445f0 <__muldf3+0x574>
   445d4:	00800434 	movhi	r2,16
   445d8:	89400234 	orhi	r5,r17,8
   445dc:	10bfffc4 	addi	r2,r2,-1
   445e0:	b82b883a 	mov	r21,r23
   445e4:	288a703a 	and	r5,r5,r2
   445e8:	4029883a 	mov	r20,r8
   445ec:	003f6806 	br	44390 <__alt_data_end+0xfffc5b90>
   445f0:	00800434 	movhi	r2,16
   445f4:	81400234 	orhi	r5,r16,8
   445f8:	10bfffc4 	addi	r2,r2,-1
   445fc:	288a703a 	and	r5,r5,r2
   44600:	003f6306 	br	44390 <__alt_data_end+0xfffc5b90>
   44604:	147ff604 	addi	r17,r2,-40
   44608:	3462983a 	sll	r17,r6,r17
   4460c:	0011883a 	mov	r8,zero
   44610:	003f4406 	br	44324 <__alt_data_end+0xfffc5b24>
   44614:	3009883a 	mov	r4,r6
   44618:	d9800215 	stw	r6,8(sp)
   4461c:	da400115 	stw	r9,4(sp)
   44620:	da800015 	stw	r10,0(sp)
   44624:	00453a40 	call	453a4 <__clzsi2>
   44628:	10800804 	addi	r2,r2,32
   4462c:	da800017 	ldw	r10,0(sp)
   44630:	da400117 	ldw	r9,4(sp)
   44634:	d9800217 	ldw	r6,8(sp)
   44638:	003f3006 	br	442fc <__alt_data_end+0xfffc5afc>
   4463c:	143ff604 	addi	r16,r2,-40
   44640:	9c20983a 	sll	r16,r19,r16
   44644:	0029883a 	mov	r20,zero
   44648:	003f1606 	br	442a4 <__alt_data_end+0xfffc5aa4>
   4464c:	d9800215 	stw	r6,8(sp)
   44650:	d9c00015 	stw	r7,0(sp)
   44654:	da400115 	stw	r9,4(sp)
   44658:	00453a40 	call	453a4 <__clzsi2>
   4465c:	10800804 	addi	r2,r2,32
   44660:	da400117 	ldw	r9,4(sp)
   44664:	d9c00017 	ldw	r7,0(sp)
   44668:	d9800217 	ldw	r6,8(sp)
   4466c:	003f0306 	br	4427c <__alt_data_end+0xfffc5a7c>
   44670:	00c00044 	movi	r3,1
   44674:	1947c83a 	sub	r3,r3,r5
   44678:	00800e04 	movi	r2,56
   4467c:	10feda16 	blt	r2,r3,441e8 <__alt_data_end+0xfffc59e8>
   44680:	008007c4 	movi	r2,31
   44684:	10c01b16 	blt	r2,r3,446f4 <__muldf3+0x678>
   44688:	00800804 	movi	r2,32
   4468c:	10c5c83a 	sub	r2,r2,r3
   44690:	888a983a 	sll	r5,r17,r2
   44694:	40c8d83a 	srl	r4,r8,r3
   44698:	4084983a 	sll	r2,r8,r2
   4469c:	88e2d83a 	srl	r17,r17,r3
   446a0:	2906b03a 	or	r3,r5,r4
   446a4:	1004c03a 	cmpne	r2,r2,zero
   446a8:	1886b03a 	or	r3,r3,r2
   446ac:	188001cc 	andi	r2,r3,7
   446b0:	10000726 	beq	r2,zero,446d0 <__muldf3+0x654>
   446b4:	188003cc 	andi	r2,r3,15
   446b8:	01000104 	movi	r4,4
   446bc:	11000426 	beq	r2,r4,446d0 <__muldf3+0x654>
   446c0:	1805883a 	mov	r2,r3
   446c4:	10c00104 	addi	r3,r2,4
   446c8:	1885803a 	cmpltu	r2,r3,r2
   446cc:	88a3883a 	add	r17,r17,r2
   446d0:	8880202c 	andhi	r2,r17,128
   446d4:	10001c26 	beq	r2,zero,44748 <__muldf3+0x6cc>
   446d8:	b02b883a 	mov	r21,r22
   446dc:	00800044 	movi	r2,1
   446e0:	000b883a 	mov	r5,zero
   446e4:	0029883a 	mov	r20,zero
   446e8:	003ec306 	br	441f8 <__alt_data_end+0xfffc59f8>
   446ec:	5805883a 	mov	r2,r11
   446f0:	003f9906 	br	44558 <__alt_data_end+0xfffc5d58>
   446f4:	00bff844 	movi	r2,-31
   446f8:	1145c83a 	sub	r2,r2,r5
   446fc:	8888d83a 	srl	r4,r17,r2
   44700:	00800804 	movi	r2,32
   44704:	18801a26 	beq	r3,r2,44770 <__muldf3+0x6f4>
   44708:	00801004 	movi	r2,64
   4470c:	10c5c83a 	sub	r2,r2,r3
   44710:	8884983a 	sll	r2,r17,r2
   44714:	1204b03a 	or	r2,r2,r8
   44718:	1004c03a 	cmpne	r2,r2,zero
   4471c:	2084b03a 	or	r2,r4,r2
   44720:	144001cc 	andi	r17,r2,7
   44724:	88000d1e 	bne	r17,zero,4475c <__muldf3+0x6e0>
   44728:	000b883a 	mov	r5,zero
   4472c:	1028d0fa 	srli	r20,r2,3
   44730:	b02b883a 	mov	r21,r22
   44734:	0005883a 	mov	r2,zero
   44738:	a468b03a 	or	r20,r20,r17
   4473c:	003eae06 	br	441f8 <__alt_data_end+0xfffc59f8>
   44740:	1007883a 	mov	r3,r2
   44744:	0023883a 	mov	r17,zero
   44748:	880a927a 	slli	r5,r17,9
   4474c:	1805883a 	mov	r2,r3
   44750:	8822977a 	slli	r17,r17,29
   44754:	280ad33a 	srli	r5,r5,12
   44758:	003ff406 	br	4472c <__alt_data_end+0xfffc5f2c>
   4475c:	10c003cc 	andi	r3,r2,15
   44760:	01000104 	movi	r4,4
   44764:	193ff626 	beq	r3,r4,44740 <__alt_data_end+0xfffc5f40>
   44768:	0023883a 	mov	r17,zero
   4476c:	003fd506 	br	446c4 <__alt_data_end+0xfffc5ec4>
   44770:	0005883a 	mov	r2,zero
   44774:	003fe706 	br	44714 <__alt_data_end+0xfffc5f14>
   44778:	00800434 	movhi	r2,16
   4477c:	89400234 	orhi	r5,r17,8
   44780:	10bfffc4 	addi	r2,r2,-1
   44784:	b02b883a 	mov	r21,r22
   44788:	288a703a 	and	r5,r5,r2
   4478c:	4029883a 	mov	r20,r8
   44790:	003eff06 	br	44390 <__alt_data_end+0xfffc5b90>

00044794 <__subdf3>:
   44794:	02000434 	movhi	r8,16
   44798:	423fffc4 	addi	r8,r8,-1
   4479c:	defffb04 	addi	sp,sp,-20
   447a0:	2a14703a 	and	r10,r5,r8
   447a4:	3812d53a 	srli	r9,r7,20
   447a8:	3a10703a 	and	r8,r7,r8
   447ac:	2006d77a 	srli	r3,r4,29
   447b0:	3004d77a 	srli	r2,r6,29
   447b4:	dc000015 	stw	r16,0(sp)
   447b8:	501490fa 	slli	r10,r10,3
   447bc:	2820d53a 	srli	r16,r5,20
   447c0:	401090fa 	slli	r8,r8,3
   447c4:	dc800215 	stw	r18,8(sp)
   447c8:	dc400115 	stw	r17,4(sp)
   447cc:	dfc00415 	stw	ra,16(sp)
   447d0:	202290fa 	slli	r17,r4,3
   447d4:	dcc00315 	stw	r19,12(sp)
   447d8:	4a41ffcc 	andi	r9,r9,2047
   447dc:	0101ffc4 	movi	r4,2047
   447e0:	2824d7fa 	srli	r18,r5,31
   447e4:	8401ffcc 	andi	r16,r16,2047
   447e8:	50c6b03a 	or	r3,r10,r3
   447ec:	380ed7fa 	srli	r7,r7,31
   447f0:	408ab03a 	or	r5,r8,r2
   447f4:	300c90fa 	slli	r6,r6,3
   447f8:	49009626 	beq	r9,r4,44a54 <__subdf3+0x2c0>
   447fc:	39c0005c 	xori	r7,r7,1
   44800:	8245c83a 	sub	r2,r16,r9
   44804:	3c807426 	beq	r7,r18,449d8 <__subdf3+0x244>
   44808:	0080af0e 	bge	zero,r2,44ac8 <__subdf3+0x334>
   4480c:	48002a1e 	bne	r9,zero,448b8 <__subdf3+0x124>
   44810:	2988b03a 	or	r4,r5,r6
   44814:	20009a1e 	bne	r4,zero,44a80 <__subdf3+0x2ec>
   44818:	888001cc 	andi	r2,r17,7
   4481c:	10000726 	beq	r2,zero,4483c <__subdf3+0xa8>
   44820:	888003cc 	andi	r2,r17,15
   44824:	01000104 	movi	r4,4
   44828:	11000426 	beq	r2,r4,4483c <__subdf3+0xa8>
   4482c:	890b883a 	add	r5,r17,r4
   44830:	2c63803a 	cmpltu	r17,r5,r17
   44834:	1c47883a 	add	r3,r3,r17
   44838:	2823883a 	mov	r17,r5
   4483c:	1880202c 	andhi	r2,r3,128
   44840:	10005926 	beq	r2,zero,449a8 <__subdf3+0x214>
   44844:	84000044 	addi	r16,r16,1
   44848:	0081ffc4 	movi	r2,2047
   4484c:	8080be26 	beq	r16,r2,44b48 <__subdf3+0x3b4>
   44850:	017fe034 	movhi	r5,65408
   44854:	297fffc4 	addi	r5,r5,-1
   44858:	1946703a 	and	r3,r3,r5
   4485c:	1804977a 	slli	r2,r3,29
   44860:	1806927a 	slli	r3,r3,9
   44864:	8822d0fa 	srli	r17,r17,3
   44868:	8401ffcc 	andi	r16,r16,2047
   4486c:	180ad33a 	srli	r5,r3,12
   44870:	9100004c 	andi	r4,r18,1
   44874:	1444b03a 	or	r2,r2,r17
   44878:	80c1ffcc 	andi	r3,r16,2047
   4487c:	1820953a 	slli	r16,r3,20
   44880:	20c03fcc 	andi	r3,r4,255
   44884:	180897fa 	slli	r4,r3,31
   44888:	00c00434 	movhi	r3,16
   4488c:	18ffffc4 	addi	r3,r3,-1
   44890:	28c6703a 	and	r3,r5,r3
   44894:	1c06b03a 	or	r3,r3,r16
   44898:	1906b03a 	or	r3,r3,r4
   4489c:	dfc00417 	ldw	ra,16(sp)
   448a0:	dcc00317 	ldw	r19,12(sp)
   448a4:	dc800217 	ldw	r18,8(sp)
   448a8:	dc400117 	ldw	r17,4(sp)
   448ac:	dc000017 	ldw	r16,0(sp)
   448b0:	dec00504 	addi	sp,sp,20
   448b4:	f800283a 	ret
   448b8:	0101ffc4 	movi	r4,2047
   448bc:	813fd626 	beq	r16,r4,44818 <__alt_data_end+0xfffc6018>
   448c0:	29402034 	orhi	r5,r5,128
   448c4:	01000e04 	movi	r4,56
   448c8:	2080a316 	blt	r4,r2,44b58 <__subdf3+0x3c4>
   448cc:	010007c4 	movi	r4,31
   448d0:	2080c616 	blt	r4,r2,44bec <__subdf3+0x458>
   448d4:	01000804 	movi	r4,32
   448d8:	2089c83a 	sub	r4,r4,r2
   448dc:	2910983a 	sll	r8,r5,r4
   448e0:	308ed83a 	srl	r7,r6,r2
   448e4:	3108983a 	sll	r4,r6,r4
   448e8:	2884d83a 	srl	r2,r5,r2
   448ec:	41ccb03a 	or	r6,r8,r7
   448f0:	2008c03a 	cmpne	r4,r4,zero
   448f4:	310cb03a 	or	r6,r6,r4
   448f8:	898dc83a 	sub	r6,r17,r6
   448fc:	89a3803a 	cmpltu	r17,r17,r6
   44900:	1887c83a 	sub	r3,r3,r2
   44904:	1c47c83a 	sub	r3,r3,r17
   44908:	3023883a 	mov	r17,r6
   4490c:	1880202c 	andhi	r2,r3,128
   44910:	10002326 	beq	r2,zero,449a0 <__subdf3+0x20c>
   44914:	04c02034 	movhi	r19,128
   44918:	9cffffc4 	addi	r19,r19,-1
   4491c:	1ce6703a 	and	r19,r3,r19
   44920:	98007a26 	beq	r19,zero,44b0c <__subdf3+0x378>
   44924:	9809883a 	mov	r4,r19
   44928:	00453a40 	call	453a4 <__clzsi2>
   4492c:	113ffe04 	addi	r4,r2,-8
   44930:	00c007c4 	movi	r3,31
   44934:	19007b16 	blt	r3,r4,44b24 <__subdf3+0x390>
   44938:	00800804 	movi	r2,32
   4493c:	1105c83a 	sub	r2,r2,r4
   44940:	8884d83a 	srl	r2,r17,r2
   44944:	9906983a 	sll	r3,r19,r4
   44948:	8922983a 	sll	r17,r17,r4
   4494c:	10c4b03a 	or	r2,r2,r3
   44950:	24007816 	blt	r4,r16,44b34 <__subdf3+0x3a0>
   44954:	2421c83a 	sub	r16,r4,r16
   44958:	80c00044 	addi	r3,r16,1
   4495c:	010007c4 	movi	r4,31
   44960:	20c09516 	blt	r4,r3,44bb8 <__subdf3+0x424>
   44964:	01400804 	movi	r5,32
   44968:	28cbc83a 	sub	r5,r5,r3
   4496c:	88c8d83a 	srl	r4,r17,r3
   44970:	8962983a 	sll	r17,r17,r5
   44974:	114a983a 	sll	r5,r2,r5
   44978:	10c6d83a 	srl	r3,r2,r3
   4497c:	8804c03a 	cmpne	r2,r17,zero
   44980:	290ab03a 	or	r5,r5,r4
   44984:	28a2b03a 	or	r17,r5,r2
   44988:	0021883a 	mov	r16,zero
   4498c:	003fa206 	br	44818 <__alt_data_end+0xfffc6018>
   44990:	2090b03a 	or	r8,r4,r2
   44994:	40018e26 	beq	r8,zero,44fd0 <__subdf3+0x83c>
   44998:	1007883a 	mov	r3,r2
   4499c:	2023883a 	mov	r17,r4
   449a0:	888001cc 	andi	r2,r17,7
   449a4:	103f9e1e 	bne	r2,zero,44820 <__alt_data_end+0xfffc6020>
   449a8:	1804977a 	slli	r2,r3,29
   449ac:	8822d0fa 	srli	r17,r17,3
   449b0:	1810d0fa 	srli	r8,r3,3
   449b4:	9100004c 	andi	r4,r18,1
   449b8:	1444b03a 	or	r2,r2,r17
   449bc:	00c1ffc4 	movi	r3,2047
   449c0:	80c02826 	beq	r16,r3,44a64 <__subdf3+0x2d0>
   449c4:	01400434 	movhi	r5,16
   449c8:	297fffc4 	addi	r5,r5,-1
   449cc:	80e0703a 	and	r16,r16,r3
   449d0:	414a703a 	and	r5,r8,r5
   449d4:	003fa806 	br	44878 <__alt_data_end+0xfffc6078>
   449d8:	0080630e 	bge	zero,r2,44b68 <__subdf3+0x3d4>
   449dc:	48003026 	beq	r9,zero,44aa0 <__subdf3+0x30c>
   449e0:	0101ffc4 	movi	r4,2047
   449e4:	813f8c26 	beq	r16,r4,44818 <__alt_data_end+0xfffc6018>
   449e8:	29402034 	orhi	r5,r5,128
   449ec:	01000e04 	movi	r4,56
   449f0:	2080a90e 	bge	r4,r2,44c98 <__subdf3+0x504>
   449f4:	298cb03a 	or	r6,r5,r6
   449f8:	3012c03a 	cmpne	r9,r6,zero
   449fc:	0005883a 	mov	r2,zero
   44a00:	4c53883a 	add	r9,r9,r17
   44a04:	4c63803a 	cmpltu	r17,r9,r17
   44a08:	10c7883a 	add	r3,r2,r3
   44a0c:	88c7883a 	add	r3,r17,r3
   44a10:	4823883a 	mov	r17,r9
   44a14:	1880202c 	andhi	r2,r3,128
   44a18:	1000d026 	beq	r2,zero,44d5c <__subdf3+0x5c8>
   44a1c:	84000044 	addi	r16,r16,1
   44a20:	0081ffc4 	movi	r2,2047
   44a24:	8080fe26 	beq	r16,r2,44e20 <__subdf3+0x68c>
   44a28:	00bfe034 	movhi	r2,65408
   44a2c:	10bfffc4 	addi	r2,r2,-1
   44a30:	1886703a 	and	r3,r3,r2
   44a34:	880ad07a 	srli	r5,r17,1
   44a38:	180497fa 	slli	r2,r3,31
   44a3c:	8900004c 	andi	r4,r17,1
   44a40:	2922b03a 	or	r17,r5,r4
   44a44:	1806d07a 	srli	r3,r3,1
   44a48:	1462b03a 	or	r17,r2,r17
   44a4c:	3825883a 	mov	r18,r7
   44a50:	003f7106 	br	44818 <__alt_data_end+0xfffc6018>
   44a54:	2984b03a 	or	r2,r5,r6
   44a58:	103f6826 	beq	r2,zero,447fc <__alt_data_end+0xfffc5ffc>
   44a5c:	39c03fcc 	andi	r7,r7,255
   44a60:	003f6706 	br	44800 <__alt_data_end+0xfffc6000>
   44a64:	4086b03a 	or	r3,r8,r2
   44a68:	18015226 	beq	r3,zero,44fb4 <__subdf3+0x820>
   44a6c:	00c00434 	movhi	r3,16
   44a70:	41400234 	orhi	r5,r8,8
   44a74:	18ffffc4 	addi	r3,r3,-1
   44a78:	28ca703a 	and	r5,r5,r3
   44a7c:	003f7e06 	br	44878 <__alt_data_end+0xfffc6078>
   44a80:	10bfffc4 	addi	r2,r2,-1
   44a84:	1000491e 	bne	r2,zero,44bac <__subdf3+0x418>
   44a88:	898fc83a 	sub	r7,r17,r6
   44a8c:	89e3803a 	cmpltu	r17,r17,r7
   44a90:	1947c83a 	sub	r3,r3,r5
   44a94:	1c47c83a 	sub	r3,r3,r17
   44a98:	3823883a 	mov	r17,r7
   44a9c:	003f9b06 	br	4490c <__alt_data_end+0xfffc610c>
   44aa0:	2988b03a 	or	r4,r5,r6
   44aa4:	203f5c26 	beq	r4,zero,44818 <__alt_data_end+0xfffc6018>
   44aa8:	10bfffc4 	addi	r2,r2,-1
   44aac:	1000931e 	bne	r2,zero,44cfc <__subdf3+0x568>
   44ab0:	898d883a 	add	r6,r17,r6
   44ab4:	3463803a 	cmpltu	r17,r6,r17
   44ab8:	1947883a 	add	r3,r3,r5
   44abc:	88c7883a 	add	r3,r17,r3
   44ac0:	3023883a 	mov	r17,r6
   44ac4:	003fd306 	br	44a14 <__alt_data_end+0xfffc6214>
   44ac8:	1000541e 	bne	r2,zero,44c1c <__subdf3+0x488>
   44acc:	80800044 	addi	r2,r16,1
   44ad0:	1081ffcc 	andi	r2,r2,2047
   44ad4:	01000044 	movi	r4,1
   44ad8:	2080a20e 	bge	r4,r2,44d64 <__subdf3+0x5d0>
   44adc:	8989c83a 	sub	r4,r17,r6
   44ae0:	8905803a 	cmpltu	r2,r17,r4
   44ae4:	1967c83a 	sub	r19,r3,r5
   44ae8:	98a7c83a 	sub	r19,r19,r2
   44aec:	9880202c 	andhi	r2,r19,128
   44af0:	10006326 	beq	r2,zero,44c80 <__subdf3+0x4ec>
   44af4:	3463c83a 	sub	r17,r6,r17
   44af8:	28c7c83a 	sub	r3,r5,r3
   44afc:	344d803a 	cmpltu	r6,r6,r17
   44b00:	19a7c83a 	sub	r19,r3,r6
   44b04:	3825883a 	mov	r18,r7
   44b08:	983f861e 	bne	r19,zero,44924 <__alt_data_end+0xfffc6124>
   44b0c:	8809883a 	mov	r4,r17
   44b10:	00453a40 	call	453a4 <__clzsi2>
   44b14:	10800804 	addi	r2,r2,32
   44b18:	113ffe04 	addi	r4,r2,-8
   44b1c:	00c007c4 	movi	r3,31
   44b20:	193f850e 	bge	r3,r4,44938 <__alt_data_end+0xfffc6138>
   44b24:	10bff604 	addi	r2,r2,-40
   44b28:	8884983a 	sll	r2,r17,r2
   44b2c:	0023883a 	mov	r17,zero
   44b30:	243f880e 	bge	r4,r16,44954 <__alt_data_end+0xfffc6154>
   44b34:	00ffe034 	movhi	r3,65408
   44b38:	18ffffc4 	addi	r3,r3,-1
   44b3c:	8121c83a 	sub	r16,r16,r4
   44b40:	10c6703a 	and	r3,r2,r3
   44b44:	003f3406 	br	44818 <__alt_data_end+0xfffc6018>
   44b48:	9100004c 	andi	r4,r18,1
   44b4c:	000b883a 	mov	r5,zero
   44b50:	0005883a 	mov	r2,zero
   44b54:	003f4806 	br	44878 <__alt_data_end+0xfffc6078>
   44b58:	298cb03a 	or	r6,r5,r6
   44b5c:	300cc03a 	cmpne	r6,r6,zero
   44b60:	0005883a 	mov	r2,zero
   44b64:	003f6406 	br	448f8 <__alt_data_end+0xfffc60f8>
   44b68:	10009a1e 	bne	r2,zero,44dd4 <__subdf3+0x640>
   44b6c:	82400044 	addi	r9,r16,1
   44b70:	4881ffcc 	andi	r2,r9,2047
   44b74:	02800044 	movi	r10,1
   44b78:	5080670e 	bge	r10,r2,44d18 <__subdf3+0x584>
   44b7c:	0081ffc4 	movi	r2,2047
   44b80:	4880af26 	beq	r9,r2,44e40 <__subdf3+0x6ac>
   44b84:	898d883a 	add	r6,r17,r6
   44b88:	1945883a 	add	r2,r3,r5
   44b8c:	3447803a 	cmpltu	r3,r6,r17
   44b90:	1887883a 	add	r3,r3,r2
   44b94:	182297fa 	slli	r17,r3,31
   44b98:	300cd07a 	srli	r6,r6,1
   44b9c:	1806d07a 	srli	r3,r3,1
   44ba0:	4821883a 	mov	r16,r9
   44ba4:	89a2b03a 	or	r17,r17,r6
   44ba8:	003f1b06 	br	44818 <__alt_data_end+0xfffc6018>
   44bac:	0101ffc4 	movi	r4,2047
   44bb0:	813f441e 	bne	r16,r4,448c4 <__alt_data_end+0xfffc60c4>
   44bb4:	003f1806 	br	44818 <__alt_data_end+0xfffc6018>
   44bb8:	843ff844 	addi	r16,r16,-31
   44bbc:	01400804 	movi	r5,32
   44bc0:	1408d83a 	srl	r4,r2,r16
   44bc4:	19405026 	beq	r3,r5,44d08 <__subdf3+0x574>
   44bc8:	01401004 	movi	r5,64
   44bcc:	28c7c83a 	sub	r3,r5,r3
   44bd0:	10c4983a 	sll	r2,r2,r3
   44bd4:	88a2b03a 	or	r17,r17,r2
   44bd8:	8822c03a 	cmpne	r17,r17,zero
   44bdc:	2462b03a 	or	r17,r4,r17
   44be0:	0007883a 	mov	r3,zero
   44be4:	0021883a 	mov	r16,zero
   44be8:	003f6d06 	br	449a0 <__alt_data_end+0xfffc61a0>
   44bec:	11fff804 	addi	r7,r2,-32
   44bf0:	01000804 	movi	r4,32
   44bf4:	29ced83a 	srl	r7,r5,r7
   44bf8:	11004526 	beq	r2,r4,44d10 <__subdf3+0x57c>
   44bfc:	01001004 	movi	r4,64
   44c00:	2089c83a 	sub	r4,r4,r2
   44c04:	2904983a 	sll	r2,r5,r4
   44c08:	118cb03a 	or	r6,r2,r6
   44c0c:	300cc03a 	cmpne	r6,r6,zero
   44c10:	398cb03a 	or	r6,r7,r6
   44c14:	0005883a 	mov	r2,zero
   44c18:	003f3706 	br	448f8 <__alt_data_end+0xfffc60f8>
   44c1c:	80002a26 	beq	r16,zero,44cc8 <__subdf3+0x534>
   44c20:	0101ffc4 	movi	r4,2047
   44c24:	49006626 	beq	r9,r4,44dc0 <__subdf3+0x62c>
   44c28:	0085c83a 	sub	r2,zero,r2
   44c2c:	18c02034 	orhi	r3,r3,128
   44c30:	01000e04 	movi	r4,56
   44c34:	20807e16 	blt	r4,r2,44e30 <__subdf3+0x69c>
   44c38:	010007c4 	movi	r4,31
   44c3c:	2080e716 	blt	r4,r2,44fdc <__subdf3+0x848>
   44c40:	01000804 	movi	r4,32
   44c44:	2089c83a 	sub	r4,r4,r2
   44c48:	1914983a 	sll	r10,r3,r4
   44c4c:	8890d83a 	srl	r8,r17,r2
   44c50:	8908983a 	sll	r4,r17,r4
   44c54:	1884d83a 	srl	r2,r3,r2
   44c58:	5222b03a 	or	r17,r10,r8
   44c5c:	2006c03a 	cmpne	r3,r4,zero
   44c60:	88e2b03a 	or	r17,r17,r3
   44c64:	3463c83a 	sub	r17,r6,r17
   44c68:	2885c83a 	sub	r2,r5,r2
   44c6c:	344d803a 	cmpltu	r6,r6,r17
   44c70:	1187c83a 	sub	r3,r2,r6
   44c74:	4821883a 	mov	r16,r9
   44c78:	3825883a 	mov	r18,r7
   44c7c:	003f2306 	br	4490c <__alt_data_end+0xfffc610c>
